
lcd.elf:     file format elf32-littlearm


Disassembly of section .text:

30000000 <__start_text>:
30000000:	ea00002e 	b	300000c0 <reset>
30000004:	e59ff014 	ldr	pc, [pc, #20]	; 30000020 <_undefined_exception>
30000008:	e59ff014 	ldr	pc, [pc, #20]	; 30000024 <_swi_exception>
3000000c:	e59ff134 	ldr	pc, [pc, #308]	; 30000148 <_loop>
30000010:	e59ff130 	ldr	pc, [pc, #304]	; 30000148 <_loop>
30000014:	e59ff12c 	ldr	pc, [pc, #300]	; 30000148 <_loop>
30000018:	e59ff008 	ldr	pc, [pc, #8]	; 30000028 <_irq>
3000001c:	e59ff124 	ldr	pc, [pc, #292]	; 30000148 <_loop>

30000020 <_undefined_exception>:
30000020:	30000040 	andcc	r0, r0, r0, asr #32

30000024 <_swi_exception>:
30000024:	30000080 	andcc	r0, r0, r0, lsl #1

30000028 <_irq>:
30000028:	3000002c 	andcc	r0, r0, ip, lsr #32

3000002c <_do_irq>:
3000002c:	e59fd118 	ldr	sp, [pc, #280]	; 3000014c <_loop+0x4>
30000030:	e24ee004 	sub	lr, lr, #4
30000034:	e92d5fff 	push	{r0, r1, r2, r3, r4, r5, r6, r7, r8, r9, sl, fp, ip, lr}
30000038:	eb00057e 	bl	30001638 <interrupt_handler>
3000003c:	e8fd9fff 	ldm	sp!, {r0, r1, r2, r3, r4, r5, r6, r7, r8, r9, sl, fp, ip, pc}^

30000040 <_do_undefined_exception>:
30000040:	e59fd108 	ldr	sp, [pc, #264]	; 30000150 <_loop+0x8>
30000044:	e92d5fff 	push	{r0, r1, r2, r3, r4, r5, r6, r7, r8, r9, sl, fp, ip, lr}
30000048:	e10f0000 	mrs	r0, CPSR
3000004c:	e59f1100 	ldr	r1, [pc, #256]	; 30000154 <_loop+0xc>
30000050:	eb000521 	bl	300014dc <undefined_exception>
30000054:	e8fd9fff 	ldm	sp!, {r0, r1, r2, r3, r4, r5, r6, r7, r8, r9, sl, fp, ip, pc}^

30000058 <_undefined_info_str>:
30000058:	78452020 	stmdavc	r5, {r5, sp}^
3000005c:	74706563 	ldrbtvc	r6, [r0], #-1379	; 0xfffffa9d
30000060:	206e6f69 	rsbcs	r6, lr, r9, ror #30
30000064:	5f207369 	svcpl	0x00207369
30000068:	65646e75 	strbvs	r6, [r4, #-3701]!	; 0xfffff18b
3000006c:	656e6966 	strbvs	r6, [lr, #-2406]!	; 0xfffff69a
30000070:	78655f64 	stmdavc	r5!, {r2, r5, r6, r8, r9, sl, fp, ip, lr}^
30000074:	74706563 	ldrbtvc	r6, [r0], #-1379	; 0xfffffa9d
30000078:	0d6e6f69 	stcleq	15, cr6, [lr, #-420]!	; 0xfffffe5c
3000007c:	0000000a 	andeq	r0, r0, sl

30000080 <_do_swi_exception>:
30000080:	e59fd0d0 	ldr	sp, [pc, #208]	; 30000158 <_loop+0x10>
30000084:	e92d5fff 	push	{r0, r1, r2, r3, r4, r5, r6, r7, r8, r9, sl, fp, ip, lr}
30000088:	e1a0000e 	mov	r0, lr
3000008c:	e2400004 	sub	r0, r0, #4
30000090:	e59f10c4 	ldr	r1, [pc, #196]	; 3000015c <_loop+0x14>
30000094:	eb00051f 	bl	30001518 <swi_exception>
30000098:	e8fd9fff 	ldm	sp!, {r0, r1, r2, r3, r4, r5, r6, r7, r8, r9, sl, fp, ip, pc}^

3000009c <_swi_info_str>:
3000009c:	78452020 	stmdavc	r5, {r5, sp}^
300000a0:	74706563 	ldrbtvc	r6, [r0], #-1379	; 0xfffffa9d
300000a4:	206e6f69 	rsbcs	r6, lr, r9, ror #30
300000a8:	5f207369 	svcpl	0x00207369
300000ac:	5f697773 	svcpl	0x00697773
300000b0:	65637865 	strbvs	r7, [r3, #-2149]!	; 0xfffff79b
300000b4:	6f697470 	svcvs	0x00697470
300000b8:	000a0d6e 	andeq	r0, sl, lr, ror #26
300000bc:	e1a00000 	nop			; (mov r0, r0)

300000c0 <reset>:
300000c0:	e3a00453 	mov	r0, #1392508928	; 0x53000000
300000c4:	e3a01000 	mov	r1, #0
300000c8:	e5801000 	str	r1, [r0]
300000cc:	e3e00000 	mvn	r0, #0
300000d0:	e3a01313 	mov	r1, #1275068416	; 0x4c000000
300000d4:	e5810000 	str	r0, [r1]
300000d8:	e59f0080 	ldr	r0, [pc, #128]	; 30000160 <_loop+0x18>
300000dc:	e3a01007 	mov	r1, #7
300000e0:	e5801000 	str	r1, [r0]
300000e4:	ee110f10 	mrc	15, 0, r0, cr1, cr0, {0}
300000e8:	e3800103 	orr	r0, r0, #-1073741824	; 0xc0000000
300000ec:	ee010f10 	mcr	15, 0, r0, cr1, cr0, {0}
300000f0:	e59f006c 	ldr	r0, [pc, #108]	; 30000164 <_loop+0x1c>
300000f4:	e59f106c 	ldr	r1, [pc, #108]	; 30000168 <_loop+0x20>
300000f8:	e5801000 	str	r1, [r0]
300000fc:	e3a00c01 	mov	r0, #256	; 0x100
30000100:	e3a01000 	mov	r1, #0
30000104:	e5810000 	str	r0, [r1]
30000108:	e5911000 	ldr	r1, [r1]
3000010c:	e1500001 	cmp	r0, r1
30000110:	03a0da01 	moveq	sp, #4096	; 0x1000
30000114:	159fd050 	ldrne	sp, [pc, #80]	; 3000016c <_loop+0x24>
30000118:	eb0000c3 	bl	3000042c <system_init>
3000011c:	e10f0000 	mrs	r0, CPSR
30000120:	e3c00080 	bic	r0, r0, #128	; 0x80
30000124:	e129f000 	msr	CPSR_fc, r0
30000128:	ee110f10 	mrc	15, 0, r0, cr1, cr0, {0}
3000012c:	e3800a01 	orr	r0, r0, #4096	; 0x1000
30000130:	ee010f10 	mcr	15, 0, r0, cr1, cr0, {0}
30000134:	e3a0d30d 	mov	sp, #872415232	; 0x34000000
30000138:	e59ff030 	ldr	pc, [pc, #48]	; 30000170 <_loop+0x28>

3000013c <_sdram>:
3000013c:	eb0003a2 	bl	30000fcc <uart0_init>
30000140:	ef000123 	svc	0x00000123
30000144:	e59ff028 	ldr	pc, [pc, #40]	; 30000174 <_loop+0x2c>

30000148 <_loop>:
30000148:	eafffffe 	b	30000148 <_loop>
3000014c:	33d00000 	bicscc	r0, r0, #0
30000150:	33e00000 	mvncc	r0, #0
30000154:	30000058 	andcc	r0, r0, r8, asr r0
30000158:	33f00000 	mvnscc	r0, #0
3000015c:	3000009c 	mulcc	r0, ip, r0
30000160:	4c000014 	stcmi	0, cr0, [r0], {20}
30000164:	4c000004 	stcmi	0, cr0, [r0], {4}
30000168:	0005c011 	andeq	ip, r5, r1, lsl r0
3000016c:	40001000 	andmi	r1, r0, r0
30000170:	3000013c 	andcc	r0, r0, ip, lsr r1
30000174:	300014a0 	andcc	r1, r0, r0, lsr #9
30000178:	00001641 	andeq	r1, r0, r1, asr #12
3000017c:	61656100 	cmnvs	r5, r0, lsl #2
30000180:	01006962 	tsteq	r0, r2, ror #18
30000184:	0000000c 	andeq	r0, r0, ip
30000188:	06003405 	streq	r3, [r0], -r5, lsl #8
3000018c:	00010801 	andeq	r0, r1, r1, lsl #16

30000190 <sdram_init>:
30000190:	e52db004 	push	{fp}		; (str fp, [sp, #-4]!)
30000194:	e28db000 	add	fp, sp, #0
30000198:	e3a03312 	mov	r3, #1207959552	; 0x48000000
3000019c:	e3a02422 	mov	r2, #570425344	; 0x22000000
300001a0:	e5832000 	str	r2, [r3]
300001a4:	e59f3050 	ldr	r3, [pc, #80]	; 300001fc <sdram_init+0x6c>
300001a8:	e59f2050 	ldr	r2, [pc, #80]	; 30000200 <sdram_init+0x70>
300001ac:	e5832000 	str	r2, [r3]
300001b0:	e59f304c 	ldr	r3, [pc, #76]	; 30000204 <sdram_init+0x74>
300001b4:	e59f2044 	ldr	r2, [pc, #68]	; 30000200 <sdram_init+0x70>
300001b8:	e5832000 	str	r2, [r3]
300001bc:	e59f3044 	ldr	r3, [pc, #68]	; 30000208 <sdram_init+0x78>
300001c0:	e59f2044 	ldr	r2, [pc, #68]	; 3000020c <sdram_init+0x7c>
300001c4:	e5832000 	str	r2, [r3]
300001c8:	e59f3040 	ldr	r3, [pc, #64]	; 30000210 <sdram_init+0x80>
300001cc:	e3a020b1 	mov	r2, #177	; 0xb1
300001d0:	e5832000 	str	r2, [r3]
300001d4:	e59f3038 	ldr	r3, [pc, #56]	; 30000214 <sdram_init+0x84>
300001d8:	e3a02020 	mov	r2, #32
300001dc:	e5832000 	str	r2, [r3]
300001e0:	e59f3030 	ldr	r3, [pc, #48]	; 30000218 <sdram_init+0x88>
300001e4:	e3a02020 	mov	r2, #32
300001e8:	e5832000 	str	r2, [r3]
300001ec:	e1a00000 	nop			; (mov r0, r0)
300001f0:	e28bd000 	add	sp, fp, #0
300001f4:	e49db004 	pop	{fp}		; (ldr fp, [sp], #4)
300001f8:	e1a0f00e 	mov	pc, lr
300001fc:	4800001c 	stmdami	r0, {r2, r3, r4}
30000200:	00018001 	andeq	r8, r1, r1
30000204:	48000020 	stmdami	r0, {r5}
30000208:	48000024 	stmdami	r0, {r2, r5}
3000020c:	008404f5 	strdeq	r0, [r4], r5
30000210:	48000028 	stmdami	r0, {r3, r5}
30000214:	4800002c 	stmdami	r0, {r2, r3, r5}
30000218:	48000030 	stmdami	r0, {r4, r5}

3000021c <sdram_test>:
3000021c:	e92d4800 	push	{fp, lr}
30000220:	e28db004 	add	fp, sp, #4
30000224:	e24dd010 	sub	sp, sp, #16
30000228:	e3a03203 	mov	r3, #805306368	; 0x30000000
3000022c:	e50b3008 	str	r3, [fp, #-8]
30000230:	e3a03000 	mov	r3, #0
30000234:	e50b300c 	str	r3, [fp, #-12]
30000238:	ea000008 	b	30000260 <sdram_test+0x44>
3000023c:	e51b3008 	ldr	r3, [fp, #-8]
30000240:	e3a02055 	mov	r2, #85	; 0x55
30000244:	e5832000 	str	r2, [r3]
30000248:	e51b3008 	ldr	r3, [fp, #-8]
3000024c:	e2833004 	add	r3, r3, #4
30000250:	e50b3008 	str	r3, [fp, #-8]
30000254:	e51b300c 	ldr	r3, [fp, #-12]
30000258:	e2833001 	add	r3, r3, #1
3000025c:	e50b300c 	str	r3, [fp, #-12]
30000260:	e51b300c 	ldr	r3, [fp, #-12]
30000264:	e3530ffa 	cmp	r3, #1000	; 0x3e8
30000268:	bafffff3 	blt	3000023c <sdram_test+0x20>
3000026c:	e3a03203 	mov	r3, #805306368	; 0x30000000
30000270:	e50b3008 	str	r3, [fp, #-8]
30000274:	e3a03000 	mov	r3, #0
30000278:	e50b3010 	str	r3, [fp, #-16]
3000027c:	ea00000d 	b	300002b8 <sdram_test+0x9c>
30000280:	e51b3008 	ldr	r3, [fp, #-8]
30000284:	e5933000 	ldr	r3, [r3]
30000288:	e3530055 	cmp	r3, #85	; 0x55
3000028c:	0a000003 	beq	300002a0 <sdram_test+0x84>
30000290:	e59f0044 	ldr	r0, [pc, #68]	; 300002dc <sdram_test+0xc0>
30000294:	eb000398 	bl	300010fc <puts>
30000298:	e3a03000 	mov	r3, #0
3000029c:	ea00000b 	b	300002d0 <sdram_test+0xb4>
300002a0:	e51b3008 	ldr	r3, [fp, #-8]
300002a4:	e2833004 	add	r3, r3, #4
300002a8:	e50b3008 	str	r3, [fp, #-8]
300002ac:	e51b3010 	ldr	r3, [fp, #-16]
300002b0:	e2833001 	add	r3, r3, #1
300002b4:	e50b3010 	str	r3, [fp, #-16]
300002b8:	e51b3010 	ldr	r3, [fp, #-16]
300002bc:	e3530ffa 	cmp	r3, #1000	; 0x3e8
300002c0:	baffffee 	blt	30000280 <sdram_test+0x64>
300002c4:	e59f0014 	ldr	r0, [pc, #20]	; 300002e0 <sdram_test+0xc4>
300002c8:	eb00038b 	bl	300010fc <puts>
300002cc:	e3a03001 	mov	r3, #1
300002d0:	e1a00003 	mov	r0, r3
300002d4:	e24bd004 	sub	sp, fp, #4
300002d8:	e8bd8800 	pop	{fp, pc}
300002dc:	30006134 	andcc	r6, r0, r4, lsr r1
300002e0:	30006144 	andcc	r6, r0, r4, asr #2

300002e4 <is_boot_from_nor_flash>:
300002e4:	e52db004 	push	{fp}		; (str fp, [sp, #-4]!)
300002e8:	e28db000 	add	fp, sp, #0
300002ec:	e24dd00c 	sub	sp, sp, #12
300002f0:	e3a03000 	mov	r3, #0
300002f4:	e50b3008 	str	r3, [fp, #-8]
300002f8:	e51b3008 	ldr	r3, [fp, #-8]
300002fc:	e3a020ff 	mov	r2, #255	; 0xff
30000300:	e5832000 	str	r2, [r3]
30000304:	e51b3008 	ldr	r3, [fp, #-8]
30000308:	e5933000 	ldr	r3, [r3]
3000030c:	e35300ff 	cmp	r3, #255	; 0xff
30000310:	13a03001 	movne	r3, #1
30000314:	03a03000 	moveq	r3, #0
30000318:	e20330ff 	and	r3, r3, #255	; 0xff
3000031c:	e1a00003 	mov	r0, r3
30000320:	e28bd000 	add	sp, fp, #0
30000324:	e49db004 	pop	{fp}		; (ldr fp, [sp], #4)
30000328:	e1a0f00e 	mov	pc, lr

3000032c <copy2sdram>:
3000032c:	e92d4800 	push	{fp, lr}
30000330:	e28db004 	add	fp, sp, #4
30000334:	e24dd010 	sub	sp, sp, #16
30000338:	e59f3084 	ldr	r3, [pc, #132]	; 300003c4 <copy2sdram+0x98>
3000033c:	e50b3008 	str	r3, [fp, #-8]
30000340:	e59f3080 	ldr	r3, [pc, #128]	; 300003c8 <copy2sdram+0x9c>
30000344:	e50b3010 	str	r3, [fp, #-16]
30000348:	e3a03000 	mov	r3, #0
3000034c:	e50b300c 	str	r3, [fp, #-12]
30000350:	ebffffe3 	bl	300002e4 <is_boot_from_nor_flash>
30000354:	e1a03000 	mov	r3, r0
30000358:	e3530000 	cmp	r3, #0
3000035c:	0a00000d 	beq	30000398 <copy2sdram+0x6c>
30000360:	ea000007 	b	30000384 <copy2sdram+0x58>
30000364:	e51b200c 	ldr	r2, [fp, #-12]
30000368:	e2823004 	add	r3, r2, #4
3000036c:	e50b300c 	str	r3, [fp, #-12]
30000370:	e51b3008 	ldr	r3, [fp, #-8]
30000374:	e2831004 	add	r1, r3, #4
30000378:	e50b1008 	str	r1, [fp, #-8]
3000037c:	e5922000 	ldr	r2, [r2]
30000380:	e5832000 	str	r2, [r3]
30000384:	e51b2008 	ldr	r2, [fp, #-8]
30000388:	e51b3010 	ldr	r3, [fp, #-16]
3000038c:	e1520003 	cmp	r2, r3
30000390:	3afffff3 	bcc	30000364 <copy2sdram+0x38>
30000394:	ea000007 	b	300003b8 <copy2sdram+0x8c>
30000398:	eb00002a 	bl	30000448 <nand_init>
3000039c:	e59f2024 	ldr	r2, [pc, #36]	; 300003c8 <copy2sdram+0x9c>
300003a0:	e59f301c 	ldr	r3, [pc, #28]	; 300003c4 <copy2sdram+0x98>
300003a4:	e0423003 	sub	r3, r2, r3
300003a8:	e1a02003 	mov	r2, r3
300003ac:	e51b1008 	ldr	r1, [fp, #-8]
300003b0:	e3a00000 	mov	r0, #0
300003b4:	eb000089 	bl	300005e0 <nand_read_data>
300003b8:	e1a00000 	nop			; (mov r0, r0)
300003bc:	e24bd004 	sub	sp, fp, #4
300003c0:	e8bd8800 	pop	{fp, pc}
300003c4:	30000000 	andcc	r0, r0, r0
300003c8:	300076bc 			; <UNDEFINED> instruction: 0x300076bc

300003cc <clean_bss>:
300003cc:	e52db004 	push	{fp}		; (str fp, [sp, #-4]!)
300003d0:	e28db000 	add	fp, sp, #0
300003d4:	e24dd00c 	sub	sp, sp, #12
300003d8:	e59f3044 	ldr	r3, [pc, #68]	; 30000424 <clean_bss+0x58>
300003dc:	e50b3008 	str	r3, [fp, #-8]
300003e0:	e59f3040 	ldr	r3, [pc, #64]	; 30000428 <clean_bss+0x5c>
300003e4:	e50b300c 	str	r3, [fp, #-12]
300003e8:	ea000004 	b	30000400 <clean_bss+0x34>
300003ec:	e51b3008 	ldr	r3, [fp, #-8]
300003f0:	e2832004 	add	r2, r3, #4
300003f4:	e50b2008 	str	r2, [fp, #-8]
300003f8:	e3a02000 	mov	r2, #0
300003fc:	e5832000 	str	r2, [r3]
30000400:	e51b2008 	ldr	r2, [fp, #-8]
30000404:	e51b300c 	ldr	r3, [fp, #-12]
30000408:	e1520003 	cmp	r2, r3
3000040c:	9afffff6 	bls	300003ec <clean_bss+0x20>
30000410:	e1a00000 	nop			; (mov r0, r0)
30000414:	e1a00000 	nop			; (mov r0, r0)
30000418:	e28bd000 	add	sp, fp, #0
3000041c:	e49db004 	pop	{fp}		; (ldr fp, [sp], #4)
30000420:	e1a0f00e 	mov	pc, lr
30000424:	300076bc 			; <UNDEFINED> instruction: 0x300076bc
30000428:	30007868 	andcc	r7, r0, r8, ror #16

3000042c <system_init>:
3000042c:	e92d4800 	push	{fp, lr}
30000430:	e28db004 	add	fp, sp, #4
30000434:	ebffff55 	bl	30000190 <sdram_init>
30000438:	ebffffbb 	bl	3000032c <copy2sdram>
3000043c:	ebffffe2 	bl	300003cc <clean_bss>
30000440:	e1a00000 	nop			; (mov r0, r0)
30000444:	e8bd8800 	pop	{fp, pc}

30000448 <nand_init>:
30000448:	e52db004 	push	{fp}		; (str fp, [sp, #-4]!)
3000044c:	e28db000 	add	fp, sp, #0
30000450:	e3a0344e 	mov	r3, #1308622848	; 0x4e000000
30000454:	e5933000 	ldr	r3, [r3]
30000458:	e3a0244e 	mov	r2, #1308622848	; 0x4e000000
3000045c:	e3c33a03 	bic	r3, r3, #12288	; 0x3000
30000460:	e5823000 	str	r3, [r2]
30000464:	e3a0344e 	mov	r3, #1308622848	; 0x4e000000
30000468:	e5933000 	ldr	r3, [r3]
3000046c:	e3a0244e 	mov	r2, #1308622848	; 0x4e000000
30000470:	e3833c01 	orr	r3, r3, #256	; 0x100
30000474:	e5823000 	str	r3, [r2]
30000478:	e59f3044 	ldr	r3, [pc, #68]	; 300004c4 <nand_init+0x7c>
3000047c:	e5933000 	ldr	r3, [r3]
30000480:	e59f203c 	ldr	r2, [pc, #60]	; 300004c4 <nand_init+0x7c>
30000484:	e3c33a01 	bic	r3, r3, #4096	; 0x1000
30000488:	e5823000 	str	r3, [r2]
3000048c:	e59f3030 	ldr	r3, [pc, #48]	; 300004c4 <nand_init+0x7c>
30000490:	e5933000 	ldr	r3, [r3]
30000494:	e59f2028 	ldr	r2, [pc, #40]	; 300004c4 <nand_init+0x7c>
30000498:	e3833002 	orr	r3, r3, #2
3000049c:	e5823000 	str	r3, [r2]
300004a0:	e59f301c 	ldr	r3, [pc, #28]	; 300004c4 <nand_init+0x7c>
300004a4:	e5933000 	ldr	r3, [r3]
300004a8:	e59f2014 	ldr	r2, [pc, #20]	; 300004c4 <nand_init+0x7c>
300004ac:	e3833001 	orr	r3, r3, #1
300004b0:	e5823000 	str	r3, [r2]
300004b4:	e1a00000 	nop			; (mov r0, r0)
300004b8:	e28bd000 	add	sp, fp, #0
300004bc:	e49db004 	pop	{fp}		; (ldr fp, [sp], #4)
300004c0:	e1a0f00e 	mov	pc, lr
300004c4:	4e000004 	cdpmi	0, 0, cr0, cr0, cr4, {0}

300004c8 <nand_wait_ready>:
300004c8:	e52db004 	push	{fp}		; (str fp, [sp, #-4]!)
300004cc:	e28db000 	add	fp, sp, #0
300004d0:	e1a00000 	nop			; (mov r0, r0)
300004d4:	e59f3020 	ldr	r3, [pc, #32]	; 300004fc <nand_wait_ready+0x34>
300004d8:	e5933000 	ldr	r3, [r3]
300004dc:	e2033001 	and	r3, r3, #1
300004e0:	e3530000 	cmp	r3, #0
300004e4:	0afffffa 	beq	300004d4 <nand_wait_ready+0xc>
300004e8:	e1a00000 	nop			; (mov r0, r0)
300004ec:	e1a00000 	nop			; (mov r0, r0)
300004f0:	e28bd000 	add	sp, fp, #0
300004f4:	e49db004 	pop	{fp}		; (ldr fp, [sp], #4)
300004f8:	e1a0f00e 	mov	pc, lr
300004fc:	4e000020 	cdpmi	0, 0, cr0, cr0, cr0, {1}

30000500 <nand_send_command>:
30000500:	e52db004 	push	{fp}		; (str fp, [sp, #-4]!)
30000504:	e28db000 	add	fp, sp, #0
30000508:	e24dd014 	sub	sp, sp, #20
3000050c:	e1a03000 	mov	r3, r0
30000510:	e54b300d 	strb	r3, [fp, #-13]
30000514:	e59f203c 	ldr	r2, [pc, #60]	; 30000558 <nand_send_command+0x58>
30000518:	e55b300d 	ldrb	r3, [fp, #-13]
3000051c:	e5c23000 	strb	r3, [r2]
30000520:	e3a03000 	mov	r3, #0
30000524:	e50b3008 	str	r3, [fp, #-8]
30000528:	ea000002 	b	30000538 <nand_send_command+0x38>
3000052c:	e51b3008 	ldr	r3, [fp, #-8]
30000530:	e2833001 	add	r3, r3, #1
30000534:	e50b3008 	str	r3, [fp, #-8]
30000538:	e51b3008 	ldr	r3, [fp, #-8]
3000053c:	e3530009 	cmp	r3, #9
30000540:	dafffff9 	ble	3000052c <nand_send_command+0x2c>
30000544:	e1a00000 	nop			; (mov r0, r0)
30000548:	e1a00000 	nop			; (mov r0, r0)
3000054c:	e28bd000 	add	sp, fp, #0
30000550:	e49db004 	pop	{fp}		; (ldr fp, [sp], #4)
30000554:	e1a0f00e 	mov	pc, lr
30000558:	4e000008 	cdpmi	0, 0, cr0, cr0, cr8, {0}

3000055c <nand_send_address>:
3000055c:	e52db004 	push	{fp}		; (str fp, [sp, #-4]!)
30000560:	e28db000 	add	fp, sp, #0
30000564:	e24dd014 	sub	sp, sp, #20
30000568:	e1a03000 	mov	r3, r0
3000056c:	e54b300d 	strb	r3, [fp, #-13]
30000570:	e59f203c 	ldr	r2, [pc, #60]	; 300005b4 <nand_send_address+0x58>
30000574:	e55b300d 	ldrb	r3, [fp, #-13]
30000578:	e5c23000 	strb	r3, [r2]
3000057c:	e3a03000 	mov	r3, #0
30000580:	e50b3008 	str	r3, [fp, #-8]
30000584:	ea000002 	b	30000594 <nand_send_address+0x38>
30000588:	e51b3008 	ldr	r3, [fp, #-8]
3000058c:	e2833001 	add	r3, r3, #1
30000590:	e50b3008 	str	r3, [fp, #-8]
30000594:	e51b3008 	ldr	r3, [fp, #-8]
30000598:	e3530009 	cmp	r3, #9
3000059c:	dafffff9 	ble	30000588 <nand_send_address+0x2c>
300005a0:	e1a00000 	nop			; (mov r0, r0)
300005a4:	e1a00000 	nop			; (mov r0, r0)
300005a8:	e28bd000 	add	sp, fp, #0
300005ac:	e49db004 	pop	{fp}		; (ldr fp, [sp], #4)
300005b0:	e1a0f00e 	mov	pc, lr
300005b4:	4e00000c 	cdpmi	0, 0, cr0, cr0, cr12, {0}

300005b8 <nand_read_data_byte>:
300005b8:	e52db004 	push	{fp}		; (str fp, [sp, #-4]!)
300005bc:	e28db000 	add	fp, sp, #0
300005c0:	e59f3014 	ldr	r3, [pc, #20]	; 300005dc <nand_read_data_byte+0x24>
300005c4:	e5d33000 	ldrb	r3, [r3]
300005c8:	e20330ff 	and	r3, r3, #255	; 0xff
300005cc:	e1a00003 	mov	r0, r3
300005d0:	e28bd000 	add	sp, fp, #0
300005d4:	e49db004 	pop	{fp}		; (ldr fp, [sp], #4)
300005d8:	e1a0f00e 	mov	pc, lr
300005dc:	4e000010 	mcrmi	0, 0, r0, cr0, cr0, {0}

300005e0 <nand_read_data>:
300005e0:	e92d4810 	push	{r4, fp, lr}
300005e4:	e28db008 	add	fp, sp, #8
300005e8:	e24dd024 	sub	sp, sp, #36	; 0x24
300005ec:	e50b0020 	str	r0, [fp, #-32]	; 0xffffffe0
300005f0:	e50b1024 	str	r1, [fp, #-36]	; 0xffffffdc
300005f4:	e50b2028 	str	r2, [fp, #-40]	; 0xffffffd8
300005f8:	e3a03000 	mov	r3, #0
300005fc:	e50b3010 	str	r3, [fp, #-16]
30000600:	e51b3020 	ldr	r3, [fp, #-32]	; 0xffffffe0
30000604:	e1a035a3 	lsr	r3, r3, #11
30000608:	e50b3014 	str	r3, [fp, #-20]	; 0xffffffec
3000060c:	e51b3020 	ldr	r3, [fp, #-32]	; 0xffffffe0
30000610:	e1a03a83 	lsl	r3, r3, #21
30000614:	e1a03aa3 	lsr	r3, r3, #21
30000618:	e50b3018 	str	r3, [fp, #-24]	; 0xffffffe8
3000061c:	e59f3128 	ldr	r3, [pc, #296]	; 3000074c <nand_read_data+0x16c>
30000620:	e5933000 	ldr	r3, [r3]
30000624:	e59f2120 	ldr	r2, [pc, #288]	; 3000074c <nand_read_data+0x16c>
30000628:	e3c33002 	bic	r3, r3, #2
3000062c:	e5823000 	str	r3, [r2]
30000630:	ea000037 	b	30000714 <nand_read_data+0x134>
30000634:	e3a00000 	mov	r0, #0
30000638:	ebffffb0 	bl	30000500 <nand_send_command>
3000063c:	e51b3018 	ldr	r3, [fp, #-24]	; 0xffffffe8
30000640:	e20330ff 	and	r3, r3, #255	; 0xff
30000644:	e1a00003 	mov	r0, r3
30000648:	ebffffc3 	bl	3000055c <nand_send_address>
3000064c:	e51b3018 	ldr	r3, [fp, #-24]	; 0xffffffe8
30000650:	e1a03423 	lsr	r3, r3, #8
30000654:	e20330ff 	and	r3, r3, #255	; 0xff
30000658:	e1a00003 	mov	r0, r3
3000065c:	ebffffbe 	bl	3000055c <nand_send_address>
30000660:	e51b3014 	ldr	r3, [fp, #-20]	; 0xffffffec
30000664:	e20330ff 	and	r3, r3, #255	; 0xff
30000668:	e1a00003 	mov	r0, r3
3000066c:	ebffffba 	bl	3000055c <nand_send_address>
30000670:	e51b3014 	ldr	r3, [fp, #-20]	; 0xffffffec
30000674:	e1a03423 	lsr	r3, r3, #8
30000678:	e20330ff 	and	r3, r3, #255	; 0xff
3000067c:	e1a00003 	mov	r0, r3
30000680:	ebffffb5 	bl	3000055c <nand_send_address>
30000684:	e51b3014 	ldr	r3, [fp, #-20]	; 0xffffffec
30000688:	e1a03823 	lsr	r3, r3, #16
3000068c:	e20330ff 	and	r3, r3, #255	; 0xff
30000690:	e1a00003 	mov	r0, r3
30000694:	ebffffb0 	bl	3000055c <nand_send_address>
30000698:	e3a00030 	mov	r0, #48	; 0x30
3000069c:	ebffff97 	bl	30000500 <nand_send_command>
300006a0:	ebffff88 	bl	300004c8 <nand_wait_ready>
300006a4:	ea00000a 	b	300006d4 <nand_read_data+0xf4>
300006a8:	e51b3010 	ldr	r3, [fp, #-16]
300006ac:	e2832001 	add	r2, r3, #1
300006b0:	e50b2010 	str	r2, [fp, #-16]
300006b4:	e51b2024 	ldr	r2, [fp, #-36]	; 0xffffffdc
300006b8:	e0824003 	add	r4, r2, r3
300006bc:	ebffffbd 	bl	300005b8 <nand_read_data_byte>
300006c0:	e1a03000 	mov	r3, r0
300006c4:	e5c43000 	strb	r3, [r4]
300006c8:	e51b3018 	ldr	r3, [fp, #-24]	; 0xffffffe8
300006cc:	e2833001 	add	r3, r3, #1
300006d0:	e50b3018 	str	r3, [fp, #-24]	; 0xffffffe8
300006d4:	e51b3018 	ldr	r3, [fp, #-24]	; 0xffffffe8
300006d8:	e3530b02 	cmp	r3, #2048	; 0x800
300006dc:	2a000003 	bcs	300006f0 <nand_read_data+0x110>
300006e0:	e51b2010 	ldr	r2, [fp, #-16]
300006e4:	e51b3028 	ldr	r3, [fp, #-40]	; 0xffffffd8
300006e8:	e1520003 	cmp	r2, r3
300006ec:	3affffed 	bcc	300006a8 <nand_read_data+0xc8>
300006f0:	e51b2010 	ldr	r2, [fp, #-16]
300006f4:	e51b3028 	ldr	r3, [fp, #-40]	; 0xffffffd8
300006f8:	e1520003 	cmp	r2, r3
300006fc:	0a000009 	beq	30000728 <nand_read_data+0x148>
30000700:	e3a03000 	mov	r3, #0
30000704:	e50b3018 	str	r3, [fp, #-24]	; 0xffffffe8
30000708:	e51b3014 	ldr	r3, [fp, #-20]	; 0xffffffec
3000070c:	e2833001 	add	r3, r3, #1
30000710:	e50b3014 	str	r3, [fp, #-20]	; 0xffffffec
30000714:	e51b2010 	ldr	r2, [fp, #-16]
30000718:	e51b3028 	ldr	r3, [fp, #-40]	; 0xffffffd8
3000071c:	e1520003 	cmp	r2, r3
30000720:	3affffc3 	bcc	30000634 <nand_read_data+0x54>
30000724:	ea000000 	b	3000072c <nand_read_data+0x14c>
30000728:	e1a00000 	nop			; (mov r0, r0)
3000072c:	e59f3018 	ldr	r3, [pc, #24]	; 3000074c <nand_read_data+0x16c>
30000730:	e5933000 	ldr	r3, [r3]
30000734:	e59f2010 	ldr	r2, [pc, #16]	; 3000074c <nand_read_data+0x16c>
30000738:	e3833002 	orr	r3, r3, #2
3000073c:	e5823000 	str	r3, [r2]
30000740:	e1a00000 	nop			; (mov r0, r0)
30000744:	e24bd008 	sub	sp, fp, #8
30000748:	e8bd8810 	pop	{r4, fp, pc}
3000074c:	4e000004 	cdpmi	0, 0, cr0, cr0, cr4, {0}

30000750 <nand_display_data>:
30000750:	e92d4800 	push	{fp, lr}
30000754:	e28db004 	add	fp, sp, #4
30000758:	e24dd030 	sub	sp, sp, #48	; 0x30
3000075c:	e50b0030 	str	r0, [fp, #-48]	; 0xffffffd0
30000760:	e59f3208 	ldr	r3, [pc, #520]	; 30000970 <nand_display_data+0x220>
30000764:	e5933000 	ldr	r3, [r3]
30000768:	e59f2200 	ldr	r2, [pc, #512]	; 30000970 <nand_display_data+0x220>
3000076c:	e3c33002 	bic	r3, r3, #2
30000770:	e5823000 	str	r3, [r2]
30000774:	e51b3030 	ldr	r3, [fp, #-48]	; 0xffffffd0
30000778:	e1a035a3 	lsr	r3, r3, #11
3000077c:	e50b3018 	str	r3, [fp, #-24]	; 0xffffffe8
30000780:	e51b3030 	ldr	r3, [fp, #-48]	; 0xffffffd0
30000784:	e1a03a83 	lsl	r3, r3, #21
30000788:	e1a03aa3 	lsr	r3, r3, #21
3000078c:	e50b3008 	str	r3, [fp, #-8]
30000790:	e3a03000 	mov	r3, #0
30000794:	e50b300c 	str	r3, [fp, #-12]
30000798:	e3a03000 	mov	r3, #0
3000079c:	e50b302c 	str	r3, [fp, #-44]	; 0xffffffd4
300007a0:	e24b3028 	sub	r3, fp, #40	; 0x28
300007a4:	e3a02000 	mov	r2, #0
300007a8:	e5832000 	str	r2, [r3]
300007ac:	e5832004 	str	r2, [r3, #4]
300007b0:	e5832008 	str	r2, [r3, #8]
300007b4:	e3a03000 	mov	r3, #0
300007b8:	e54b300d 	strb	r3, [fp, #-13]
300007bc:	ea000060 	b	30000944 <nand_display_data+0x1f4>
300007c0:	e3a00000 	mov	r0, #0
300007c4:	ebffff4d 	bl	30000500 <nand_send_command>
300007c8:	e51b3008 	ldr	r3, [fp, #-8]
300007cc:	e20330ff 	and	r3, r3, #255	; 0xff
300007d0:	e1a00003 	mov	r0, r3
300007d4:	ebffff60 	bl	3000055c <nand_send_address>
300007d8:	e51b3008 	ldr	r3, [fp, #-8]
300007dc:	e1a03423 	lsr	r3, r3, #8
300007e0:	e20330ff 	and	r3, r3, #255	; 0xff
300007e4:	e1a00003 	mov	r0, r3
300007e8:	ebffff5b 	bl	3000055c <nand_send_address>
300007ec:	e51b3018 	ldr	r3, [fp, #-24]	; 0xffffffe8
300007f0:	e20330ff 	and	r3, r3, #255	; 0xff
300007f4:	e1a00003 	mov	r0, r3
300007f8:	ebffff57 	bl	3000055c <nand_send_address>
300007fc:	e51b3018 	ldr	r3, [fp, #-24]	; 0xffffffe8
30000800:	e1a03423 	lsr	r3, r3, #8
30000804:	e20330ff 	and	r3, r3, #255	; 0xff
30000808:	e1a00003 	mov	r0, r3
3000080c:	ebffff52 	bl	3000055c <nand_send_address>
30000810:	e51b3018 	ldr	r3, [fp, #-24]	; 0xffffffe8
30000814:	e1a03823 	lsr	r3, r3, #16
30000818:	e20330ff 	and	r3, r3, #255	; 0xff
3000081c:	e1a00003 	mov	r0, r3
30000820:	ebffff4d 	bl	3000055c <nand_send_address>
30000824:	e3a00030 	mov	r0, #48	; 0x30
30000828:	ebffff34 	bl	30000500 <nand_send_command>
3000082c:	ebffff25 	bl	300004c8 <nand_wait_ready>
30000830:	ea00003d 	b	3000092c <nand_display_data+0x1dc>
30000834:	ebffff5f 	bl	300005b8 <nand_read_data_byte>
30000838:	e1a03000 	mov	r3, r0
3000083c:	e54b3019 	strb	r3, [fp, #-25]	; 0xffffffe7
30000840:	e55b300d 	ldrb	r3, [fp, #-13]
30000844:	e2832001 	add	r2, r3, #1
30000848:	e54b200d 	strb	r2, [fp, #-13]
3000084c:	e2433004 	sub	r3, r3, #4
30000850:	e083300b 	add	r3, r3, fp
30000854:	e55b2019 	ldrb	r2, [fp, #-25]	; 0xffffffe7
30000858:	e5432028 	strb	r2, [r3, #-40]	; 0xffffffd8
3000085c:	e51b300c 	ldr	r3, [fp, #-12]
30000860:	e2833001 	add	r3, r3, #1
30000864:	e50b300c 	str	r3, [fp, #-12]
30000868:	e55b3019 	ldrb	r3, [fp, #-25]	; 0xffffffe7
3000086c:	e1a00003 	mov	r0, r3
30000870:	eb000298 	bl	300012d8 <print_hex_byte>
30000874:	e3a00020 	mov	r0, #32
30000878:	eb0001f8 	bl	30001060 <putchar>
3000087c:	e55b300d 	ldrb	r3, [fp, #-13]
30000880:	e203300f 	and	r3, r3, #15
30000884:	e20330ff 	and	r3, r3, #255	; 0xff
30000888:	e3530000 	cmp	r3, #0
3000088c:	1a000023 	bne	30000920 <nand_display_data+0x1d0>
30000890:	e59f00dc 	ldr	r0, [pc, #220]	; 30000974 <nand_display_data+0x224>
30000894:	eb000218 	bl	300010fc <puts>
30000898:	e3a03000 	mov	r3, #0
3000089c:	e50b3014 	str	r3, [fp, #-20]	; 0xffffffec
300008a0:	ea000017 	b	30000904 <nand_display_data+0x1b4>
300008a4:	e24b202c 	sub	r2, fp, #44	; 0x2c
300008a8:	e51b3014 	ldr	r3, [fp, #-20]	; 0xffffffec
300008ac:	e0823003 	add	r3, r2, r3
300008b0:	e5d33000 	ldrb	r3, [r3]
300008b4:	e353001f 	cmp	r3, #31
300008b8:	9a00000c 	bls	300008f0 <nand_display_data+0x1a0>
300008bc:	e24b202c 	sub	r2, fp, #44	; 0x2c
300008c0:	e51b3014 	ldr	r3, [fp, #-20]	; 0xffffffec
300008c4:	e0823003 	add	r3, r2, r3
300008c8:	e5d33000 	ldrb	r3, [r3]
300008cc:	e353007e 	cmp	r3, #126	; 0x7e
300008d0:	8a000006 	bhi	300008f0 <nand_display_data+0x1a0>
300008d4:	e24b202c 	sub	r2, fp, #44	; 0x2c
300008d8:	e51b3014 	ldr	r3, [fp, #-20]	; 0xffffffec
300008dc:	e0823003 	add	r3, r2, r3
300008e0:	e5d33000 	ldrb	r3, [r3]
300008e4:	e1a00003 	mov	r0, r3
300008e8:	eb0001dc 	bl	30001060 <putchar>
300008ec:	ea000001 	b	300008f8 <nand_display_data+0x1a8>
300008f0:	e3a0002e 	mov	r0, #46	; 0x2e
300008f4:	eb0001d9 	bl	30001060 <putchar>
300008f8:	e51b3014 	ldr	r3, [fp, #-20]	; 0xffffffec
300008fc:	e2833001 	add	r3, r3, #1
30000900:	e50b3014 	str	r3, [fp, #-20]	; 0xffffffec
30000904:	e51b3014 	ldr	r3, [fp, #-20]	; 0xffffffec
30000908:	e353000f 	cmp	r3, #15
3000090c:	daffffe4 	ble	300008a4 <nand_display_data+0x154>
30000910:	e59f0060 	ldr	r0, [pc, #96]	; 30000978 <nand_display_data+0x228>
30000914:	eb0001f8 	bl	300010fc <puts>
30000918:	e3a03000 	mov	r3, #0
3000091c:	e54b300d 	strb	r3, [fp, #-13]
30000920:	e51b3008 	ldr	r3, [fp, #-8]
30000924:	e2833001 	add	r3, r3, #1
30000928:	e50b3008 	str	r3, [fp, #-8]
3000092c:	e51b3008 	ldr	r3, [fp, #-8]
30000930:	e3530b02 	cmp	r3, #2048	; 0x800
30000934:	2a000002 	bcs	30000944 <nand_display_data+0x1f4>
30000938:	e51b300c 	ldr	r3, [fp, #-12]
3000093c:	e3530b02 	cmp	r3, #2048	; 0x800
30000940:	baffffbb 	blt	30000834 <nand_display_data+0xe4>
30000944:	e51b300c 	ldr	r3, [fp, #-12]
30000948:	e3530b02 	cmp	r3, #2048	; 0x800
3000094c:	baffff9b 	blt	300007c0 <nand_display_data+0x70>
30000950:	e59f3018 	ldr	r3, [pc, #24]	; 30000970 <nand_display_data+0x220>
30000954:	e5933000 	ldr	r3, [r3]
30000958:	e59f2010 	ldr	r2, [pc, #16]	; 30000970 <nand_display_data+0x220>
3000095c:	e3833002 	orr	r3, r3, #2
30000960:	e5823000 	str	r3, [r2]
30000964:	e1a00000 	nop			; (mov r0, r0)
30000968:	e24bd004 	sub	sp, fp, #4
3000096c:	e8bd8800 	pop	{fp, pc}
30000970:	4e000004 	cdpmi	0, 0, cr0, cr0, cr4, {0}
30000974:	30006154 	andcc	r6, r0, r4, asr r1
30000978:	30006158 	andcc	r6, r0, r8, asr r1

3000097c <nand_scan_info>:
3000097c:	e92d4800 	push	{fp, lr}
30000980:	e28db004 	add	fp, sp, #4
30000984:	e24dd018 	sub	sp, sp, #24
30000988:	e59f3134 	ldr	r3, [pc, #308]	; 30000ac4 <nand_scan_info+0x148>
3000098c:	e5933000 	ldr	r3, [r3]
30000990:	e59f212c 	ldr	r2, [pc, #300]	; 30000ac4 <nand_scan_info+0x148>
30000994:	e3c33002 	bic	r3, r3, #2
30000998:	e5823000 	str	r3, [r2]
3000099c:	e3a00090 	mov	r0, #144	; 0x90
300009a0:	ebfffed6 	bl	30000500 <nand_send_command>
300009a4:	e3a00000 	mov	r0, #0
300009a8:	ebfffeeb 	bl	3000055c <nand_send_address>
300009ac:	ebffff01 	bl	300005b8 <nand_read_data_byte>
300009b0:	e1a03000 	mov	r3, r0
300009b4:	e50b3008 	str	r3, [fp, #-8]
300009b8:	ebfffefe 	bl	300005b8 <nand_read_data_byte>
300009bc:	e1a03000 	mov	r3, r0
300009c0:	e50b300c 	str	r3, [fp, #-12]
300009c4:	ebfffefb 	bl	300005b8 <nand_read_data_byte>
300009c8:	e1a03000 	mov	r3, r0
300009cc:	e50b3010 	str	r3, [fp, #-16]
300009d0:	ebfffef8 	bl	300005b8 <nand_read_data_byte>
300009d4:	e1a03000 	mov	r3, r0
300009d8:	e50b3014 	str	r3, [fp, #-20]	; 0xffffffec
300009dc:	ebfffef5 	bl	300005b8 <nand_read_data_byte>
300009e0:	e1a03000 	mov	r3, r0
300009e4:	e50b3018 	str	r3, [fp, #-24]	; 0xffffffe8
300009e8:	e59f30d4 	ldr	r3, [pc, #212]	; 30000ac4 <nand_scan_info+0x148>
300009ec:	e5933000 	ldr	r3, [r3]
300009f0:	e59f20cc 	ldr	r2, [pc, #204]	; 30000ac4 <nand_scan_info+0x148>
300009f4:	e3833002 	orr	r3, r3, #2
300009f8:	e5823000 	str	r3, [r2]
300009fc:	e51b1008 	ldr	r1, [fp, #-8]
30000a00:	e59f00c0 	ldr	r0, [pc, #192]	; 30000ac8 <nand_scan_info+0x14c>
30000a04:	eb000262 	bl	30001394 <print_data>
30000a08:	e51b100c 	ldr	r1, [fp, #-12]
30000a0c:	e59f00b8 	ldr	r0, [pc, #184]	; 30000acc <nand_scan_info+0x150>
30000a10:	eb00025f 	bl	30001394 <print_data>
30000a14:	e51b3010 	ldr	r3, [fp, #-16]
30000a18:	e2033003 	and	r3, r3, #3
30000a1c:	e3a02001 	mov	r2, #1
30000a20:	e1a03312 	lsl	r3, r2, r3
30000a24:	e1a01003 	mov	r1, r3
30000a28:	e59f00a0 	ldr	r0, [pc, #160]	; 30000ad0 <nand_scan_info+0x154>
30000a2c:	eb000258 	bl	30001394 <print_data>
30000a30:	e51b3014 	ldr	r3, [fp, #-20]	; 0xffffffec
30000a34:	e2033003 	and	r3, r3, #3
30000a38:	e3a02001 	mov	r2, #1
30000a3c:	e1a03312 	lsl	r3, r2, r3
30000a40:	e59f208c 	ldr	r2, [pc, #140]	; 30000ad4 <nand_scan_info+0x158>
30000a44:	e1a01003 	mov	r1, r3
30000a48:	e59f0088 	ldr	r0, [pc, #136]	; 30000ad8 <nand_scan_info+0x15c>
30000a4c:	eb00025f 	bl	300013d0 <print_data_unit>
30000a50:	e51b3014 	ldr	r3, [fp, #-20]	; 0xffffffec
30000a54:	e1a03223 	lsr	r3, r3, #4
30000a58:	e2033003 	and	r3, r3, #3
30000a5c:	e3a02040 	mov	r2, #64	; 0x40
30000a60:	e1a03312 	lsl	r3, r2, r3
30000a64:	e59f2068 	ldr	r2, [pc, #104]	; 30000ad4 <nand_scan_info+0x158>
30000a68:	e1a01003 	mov	r1, r3
30000a6c:	e59f0068 	ldr	r0, [pc, #104]	; 30000adc <nand_scan_info+0x160>
30000a70:	eb000256 	bl	300013d0 <print_data_unit>
30000a74:	e51b3018 	ldr	r3, [fp, #-24]	; 0xffffffe8
30000a78:	e1a03123 	lsr	r3, r3, #2
30000a7c:	e2033003 	and	r3, r3, #3
30000a80:	e3a02001 	mov	r2, #1
30000a84:	e1a03312 	lsl	r3, r2, r3
30000a88:	e1a01003 	mov	r1, r3
30000a8c:	e59f004c 	ldr	r0, [pc, #76]	; 30000ae0 <nand_scan_info+0x164>
30000a90:	eb00023f 	bl	30001394 <print_data>
30000a94:	e51b3018 	ldr	r3, [fp, #-24]	; 0xffffffe8
30000a98:	e1a03223 	lsr	r3, r3, #4
30000a9c:	e2033007 	and	r3, r3, #7
30000aa0:	e3a02040 	mov	r2, #64	; 0x40
30000aa4:	e1a03312 	lsl	r3, r2, r3
30000aa8:	e59f2034 	ldr	r2, [pc, #52]	; 30000ae4 <nand_scan_info+0x168>
30000aac:	e1a01003 	mov	r1, r3
30000ab0:	e59f0030 	ldr	r0, [pc, #48]	; 30000ae8 <nand_scan_info+0x16c>
30000ab4:	eb000245 	bl	300013d0 <print_data_unit>
30000ab8:	e1a00000 	nop			; (mov r0, r0)
30000abc:	e24bd004 	sub	sp, fp, #4
30000ac0:	e8bd8800 	pop	{fp, pc}
30000ac4:	4e000004 	cdpmi	0, 0, cr0, cr0, cr4, {0}
30000ac8:	3000615c 	andcc	r6, r0, ip, asr r1
30000acc:	3000616c 	andcc	r6, r0, ip, ror #2
30000ad0:	3000617c 	andcc	r6, r0, ip, ror r1
30000ad4:	30006194 	mulcc	r0, r4, r1
30000ad8:	30006198 	mulcc	r0, r8, r1
30000adc:	300061a8 	andcc	r6, r0, r8, lsr #3
30000ae0:	300061b8 			; <UNDEFINED> instruction: 0x300061b8
30000ae4:	300061c8 	andcc	r6, r0, r8, asr #3
30000ae8:	300061cc 	andcc	r6, r0, ip, asr #3

30000aec <nand_erase_block>:
30000aec:	e92d4800 	push	{fp, lr}
30000af0:	e28db004 	add	fp, sp, #4
30000af4:	e24dd010 	sub	sp, sp, #16
30000af8:	e50b0010 	str	r0, [fp, #-16]
30000afc:	e50b1014 	str	r1, [fp, #-20]	; 0xffffffec
30000b00:	e51b3010 	ldr	r3, [fp, #-16]
30000b04:	e3c334ff 	bic	r3, r3, #-16777216	; 0xff000000
30000b08:	e3c338fe 	bic	r3, r3, #16646144	; 0xfe0000
30000b0c:	e3530000 	cmp	r3, #0
30000b10:	0a000002 	beq	30000b20 <nand_erase_block+0x34>
30000b14:	e59f00e0 	ldr	r0, [pc, #224]	; 30000bfc <nand_erase_block+0x110>
30000b18:	eb000177 	bl	300010fc <puts>
30000b1c:	ea000034 	b	30000bf4 <nand_erase_block+0x108>
30000b20:	e59f30d8 	ldr	r3, [pc, #216]	; 30000c00 <nand_erase_block+0x114>
30000b24:	e5933000 	ldr	r3, [r3]
30000b28:	e59f20d0 	ldr	r2, [pc, #208]	; 30000c00 <nand_erase_block+0x114>
30000b2c:	e3c33002 	bic	r3, r3, #2
30000b30:	e5823000 	str	r3, [r2]
30000b34:	ea000024 	b	30000bcc <nand_erase_block+0xe0>
30000b38:	e51b3010 	ldr	r3, [fp, #-16]
30000b3c:	e1a035a3 	lsr	r3, r3, #11
30000b40:	e50b3008 	str	r3, [fp, #-8]
30000b44:	e3a00060 	mov	r0, #96	; 0x60
30000b48:	ebfffe6c 	bl	30000500 <nand_send_command>
30000b4c:	e51b3008 	ldr	r3, [fp, #-8]
30000b50:	e20330ff 	and	r3, r3, #255	; 0xff
30000b54:	e1a00003 	mov	r0, r3
30000b58:	ebfffe7f 	bl	3000055c <nand_send_address>
30000b5c:	e51b3008 	ldr	r3, [fp, #-8]
30000b60:	e1a03423 	lsr	r3, r3, #8
30000b64:	e20330ff 	and	r3, r3, #255	; 0xff
30000b68:	e1a00003 	mov	r0, r3
30000b6c:	ebfffe7a 	bl	3000055c <nand_send_address>
30000b70:	e51b3008 	ldr	r3, [fp, #-8]
30000b74:	e1a03823 	lsr	r3, r3, #16
30000b78:	e20330ff 	and	r3, r3, #255	; 0xff
30000b7c:	e1a00003 	mov	r0, r3
30000b80:	ebfffe75 	bl	3000055c <nand_send_address>
30000b84:	e3a000d0 	mov	r0, #208	; 0xd0
30000b88:	ebfffe5c 	bl	30000500 <nand_send_command>
30000b8c:	ebfffe4d 	bl	300004c8 <nand_wait_ready>
30000b90:	e3a00070 	mov	r0, #112	; 0x70
30000b94:	ebfffe59 	bl	30000500 <nand_send_command>
30000b98:	ebfffe86 	bl	300005b8 <nand_read_data_byte>
30000b9c:	e1a03000 	mov	r3, r0
30000ba0:	e2033001 	and	r3, r3, #1
30000ba4:	e3530000 	cmp	r3, #0
30000ba8:	1a000002 	bne	30000bb8 <nand_erase_block+0xcc>
30000bac:	e59f0050 	ldr	r0, [pc, #80]	; 30000c04 <nand_erase_block+0x118>
30000bb0:	eb000151 	bl	300010fc <puts>
30000bb4:	ea000001 	b	30000bc0 <nand_erase_block+0xd4>
30000bb8:	e59f0048 	ldr	r0, [pc, #72]	; 30000c08 <nand_erase_block+0x11c>
30000bbc:	eb00014e 	bl	300010fc <puts>
30000bc0:	e51b3010 	ldr	r3, [fp, #-16]
30000bc4:	e2833802 	add	r3, r3, #131072	; 0x20000
30000bc8:	e50b3010 	str	r3, [fp, #-16]
30000bcc:	e51b3014 	ldr	r3, [fp, #-20]	; 0xffffffec
30000bd0:	e2432001 	sub	r2, r3, #1
30000bd4:	e50b2014 	str	r2, [fp, #-20]	; 0xffffffec
30000bd8:	e3530000 	cmp	r3, #0
30000bdc:	1affffd5 	bne	30000b38 <nand_erase_block+0x4c>
30000be0:	e59f3018 	ldr	r3, [pc, #24]	; 30000c00 <nand_erase_block+0x114>
30000be4:	e5933000 	ldr	r3, [r3]
30000be8:	e59f2010 	ldr	r2, [pc, #16]	; 30000c00 <nand_erase_block+0x114>
30000bec:	e3833002 	orr	r3, r3, #2
30000bf0:	e5823000 	str	r3, [r2]
30000bf4:	e24bd004 	sub	sp, fp, #4
30000bf8:	e8bd8800 	pop	{fp, pc}
30000bfc:	300061dc 	ldrdcc	r6, [r0], -ip
30000c00:	4e000004 	cdpmi	0, 0, cr0, cr0, cr4, {0}
30000c04:	300061f0 	strdcc	r6, [r0], -r0
30000c08:	30006208 	andcc	r6, r0, r8, lsl #4

30000c0c <nand_send_data_byte>:
30000c0c:	e52db004 	push	{fp}		; (str fp, [sp, #-4]!)
30000c10:	e28db000 	add	fp, sp, #0
30000c14:	e24dd00c 	sub	sp, sp, #12
30000c18:	e1a03000 	mov	r3, r0
30000c1c:	e54b3005 	strb	r3, [fp, #-5]
30000c20:	e59f2014 	ldr	r2, [pc, #20]	; 30000c3c <nand_send_data_byte+0x30>
30000c24:	e55b3005 	ldrb	r3, [fp, #-5]
30000c28:	e5c23000 	strb	r3, [r2]
30000c2c:	e1a00000 	nop			; (mov r0, r0)
30000c30:	e28bd000 	add	sp, fp, #0
30000c34:	e49db004 	pop	{fp}		; (ldr fp, [sp], #4)
30000c38:	e1a0f00e 	mov	pc, lr
30000c3c:	4e000010 	mcrmi	0, 0, r0, cr0, cr0, {0}

30000c40 <nand_page_program>:
30000c40:	e92d4800 	push	{fp, lr}
30000c44:	e28db004 	add	fp, sp, #4
30000c48:	e24dd020 	sub	sp, sp, #32
30000c4c:	e50b0018 	str	r0, [fp, #-24]	; 0xffffffe8
30000c50:	e50b101c 	str	r1, [fp, #-28]	; 0xffffffe4
30000c54:	e50b2020 	str	r2, [fp, #-32]	; 0xffffffe0
30000c58:	e51b3018 	ldr	r3, [fp, #-24]	; 0xffffffe8
30000c5c:	e1a035a3 	lsr	r3, r3, #11
30000c60:	e50b3008 	str	r3, [fp, #-8]
30000c64:	e51b3018 	ldr	r3, [fp, #-24]	; 0xffffffe8
30000c68:	e1a03a83 	lsl	r3, r3, #21
30000c6c:	e1a03aa3 	lsr	r3, r3, #21
30000c70:	e50b300c 	str	r3, [fp, #-12]
30000c74:	e3a03000 	mov	r3, #0
30000c78:	e50b3010 	str	r3, [fp, #-16]
30000c7c:	e59f3140 	ldr	r3, [pc, #320]	; 30000dc4 <nand_page_program+0x184>
30000c80:	e5933000 	ldr	r3, [r3]
30000c84:	e59f2138 	ldr	r2, [pc, #312]	; 30000dc4 <nand_page_program+0x184>
30000c88:	e3c33002 	bic	r3, r3, #2
30000c8c:	e5823000 	str	r3, [r2]
30000c90:	ea00003f 	b	30000d94 <nand_page_program+0x154>
30000c94:	e3a00080 	mov	r0, #128	; 0x80
30000c98:	ebfffe18 	bl	30000500 <nand_send_command>
30000c9c:	e51b300c 	ldr	r3, [fp, #-12]
30000ca0:	e20330ff 	and	r3, r3, #255	; 0xff
30000ca4:	e1a00003 	mov	r0, r3
30000ca8:	ebfffe2b 	bl	3000055c <nand_send_address>
30000cac:	e51b300c 	ldr	r3, [fp, #-12]
30000cb0:	e1a03423 	lsr	r3, r3, #8
30000cb4:	e20330ff 	and	r3, r3, #255	; 0xff
30000cb8:	e1a00003 	mov	r0, r3
30000cbc:	ebfffe26 	bl	3000055c <nand_send_address>
30000cc0:	e51b3008 	ldr	r3, [fp, #-8]
30000cc4:	e20330ff 	and	r3, r3, #255	; 0xff
30000cc8:	e1a00003 	mov	r0, r3
30000ccc:	ebfffe22 	bl	3000055c <nand_send_address>
30000cd0:	e51b3008 	ldr	r3, [fp, #-8]
30000cd4:	e1a03423 	lsr	r3, r3, #8
30000cd8:	e20330ff 	and	r3, r3, #255	; 0xff
30000cdc:	e1a00003 	mov	r0, r3
30000ce0:	ebfffe1d 	bl	3000055c <nand_send_address>
30000ce4:	e51b3008 	ldr	r3, [fp, #-8]
30000ce8:	e1a03823 	lsr	r3, r3, #16
30000cec:	e20330ff 	and	r3, r3, #255	; 0xff
30000cf0:	e1a00003 	mov	r0, r3
30000cf4:	ebfffe18 	bl	3000055c <nand_send_address>
30000cf8:	ea00000a 	b	30000d28 <nand_page_program+0xe8>
30000cfc:	e51b3010 	ldr	r3, [fp, #-16]
30000d00:	e2832001 	add	r2, r3, #1
30000d04:	e50b2010 	str	r2, [fp, #-16]
30000d08:	e51b201c 	ldr	r2, [fp, #-28]	; 0xffffffe4
30000d0c:	e0823003 	add	r3, r2, r3
30000d10:	e5d33000 	ldrb	r3, [r3]
30000d14:	e1a00003 	mov	r0, r3
30000d18:	ebffffbb 	bl	30000c0c <nand_send_data_byte>
30000d1c:	e51b300c 	ldr	r3, [fp, #-12]
30000d20:	e2833001 	add	r3, r3, #1
30000d24:	e50b300c 	str	r3, [fp, #-12]
30000d28:	e51b300c 	ldr	r3, [fp, #-12]
30000d2c:	e3530b02 	cmp	r3, #2048	; 0x800
30000d30:	2a000003 	bcs	30000d44 <nand_page_program+0x104>
30000d34:	e51b2010 	ldr	r2, [fp, #-16]
30000d38:	e51b3020 	ldr	r3, [fp, #-32]	; 0xffffffe0
30000d3c:	e1520003 	cmp	r2, r3
30000d40:	3affffed 	bcc	30000cfc <nand_page_program+0xbc>
30000d44:	e3a00010 	mov	r0, #16
30000d48:	ebfffdec 	bl	30000500 <nand_send_command>
30000d4c:	ebfffddd 	bl	300004c8 <nand_wait_ready>
30000d50:	e3a00070 	mov	r0, #112	; 0x70
30000d54:	ebfffde9 	bl	30000500 <nand_send_command>
30000d58:	ebfffe16 	bl	300005b8 <nand_read_data_byte>
30000d5c:	e1a03000 	mov	r3, r0
30000d60:	e2033001 	and	r3, r3, #1
30000d64:	e3530000 	cmp	r3, #0
30000d68:	1a000002 	bne	30000d78 <nand_page_program+0x138>
30000d6c:	e59f0054 	ldr	r0, [pc, #84]	; 30000dc8 <nand_page_program+0x188>
30000d70:	eb0000e1 	bl	300010fc <puts>
30000d74:	ea000001 	b	30000d80 <nand_page_program+0x140>
30000d78:	e59f004c 	ldr	r0, [pc, #76]	; 30000dcc <nand_page_program+0x18c>
30000d7c:	eb0000de 	bl	300010fc <puts>
30000d80:	e3a03000 	mov	r3, #0
30000d84:	e50b300c 	str	r3, [fp, #-12]
30000d88:	e51b3008 	ldr	r3, [fp, #-8]
30000d8c:	e2833001 	add	r3, r3, #1
30000d90:	e50b3008 	str	r3, [fp, #-8]
30000d94:	e51b2010 	ldr	r2, [fp, #-16]
30000d98:	e51b3020 	ldr	r3, [fp, #-32]	; 0xffffffe0
30000d9c:	e1520003 	cmp	r2, r3
30000da0:	3affffbb 	bcc	30000c94 <nand_page_program+0x54>
30000da4:	e59f3018 	ldr	r3, [pc, #24]	; 30000dc4 <nand_page_program+0x184>
30000da8:	e5933000 	ldr	r3, [r3]
30000dac:	e59f2010 	ldr	r2, [pc, #16]	; 30000dc4 <nand_page_program+0x184>
30000db0:	e3833002 	orr	r3, r3, #2
30000db4:	e5823000 	str	r3, [r2]
30000db8:	e1a00000 	nop			; (mov r0, r0)
30000dbc:	e24bd004 	sub	sp, fp, #4
30000dc0:	e8bd8800 	pop	{fp, pc}
30000dc4:	4e000004 	cdpmi	0, 0, cr0, cr0, cr4, {0}
30000dc8:	30006220 	andcc	r6, r0, r0, lsr #4
30000dcc:	30006234 	andcc	r6, r0, r4, lsr r2

30000dd0 <nand_display_data_test>:
30000dd0:	e92d4800 	push	{fp, lr}
30000dd4:	e28db004 	add	fp, sp, #4
30000dd8:	e24dd008 	sub	sp, sp, #8
30000ddc:	e59f002c 	ldr	r0, [pc, #44]	; 30000e10 <nand_display_data_test+0x40>
30000de0:	eb0000c5 	bl	300010fc <puts>
30000de4:	eb0003ac 	bl	30001c9c <get_uint>
30000de8:	e50b0008 	str	r0, [fp, #-8]
30000dec:	e51b0008 	ldr	r0, [fp, #-8]
30000df0:	eb0000d5 	bl	3000114c <print_hex>
30000df4:	e59f0018 	ldr	r0, [pc, #24]	; 30000e14 <nand_display_data_test+0x44>
30000df8:	eb0000bf 	bl	300010fc <puts>
30000dfc:	e3a00802 	mov	r0, #131072	; 0x20000
30000e00:	ebfffe52 	bl	30000750 <nand_display_data>
30000e04:	e1a00000 	nop			; (mov r0, r0)
30000e08:	e24bd004 	sub	sp, fp, #4
30000e0c:	e8bd8800 	pop	{fp, pc}
30000e10:	30006244 	andcc	r6, r0, r4, asr #4
30000e14:	30006158 	andcc	r6, r0, r8, asr r1

30000e18 <nand_erase_block_test>:
30000e18:	e92d4800 	push	{fp, lr}
30000e1c:	e28db004 	add	fp, sp, #4
30000e20:	e3a01001 	mov	r1, #1
30000e24:	e3a00802 	mov	r0, #131072	; 0x20000
30000e28:	ebffff2f 	bl	30000aec <nand_erase_block>
30000e2c:	e1a00000 	nop			; (mov r0, r0)
30000e30:	e8bd8800 	pop	{fp, pc}

30000e34 <nand_page_program_test>:
30000e34:	e92d4800 	push	{fp, lr}
30000e38:	e28db004 	add	fp, sp, #4
30000e3c:	e3a02012 	mov	r2, #18
30000e40:	e59f100c 	ldr	r1, [pc, #12]	; 30000e54 <nand_page_program_test+0x20>
30000e44:	e3a00802 	mov	r0, #131072	; 0x20000
30000e48:	ebffff7c 	bl	30000c40 <nand_page_program>
30000e4c:	e1a00000 	nop			; (mov r0, r0)
30000e50:	e8bd8800 	pop	{fp, pc}
30000e54:	30006258 	andcc	r6, r0, r8, asr r2

30000e58 <nand_test>:
30000e58:	e92d4800 	push	{fp, lr}
30000e5c:	e28db004 	add	fp, sp, #4
30000e60:	e24dd008 	sub	sp, sp, #8
30000e64:	e3a03000 	mov	r3, #0
30000e68:	e54b3005 	strb	r3, [fp, #-5]
30000e6c:	e1a00000 	nop			; (mov r0, r0)
30000e70:	ea000049 	b	30000f9c <nand_test+0x144>
30000e74:	e59f013c 	ldr	r0, [pc, #316]	; 30000fb8 <nand_test+0x160>
30000e78:	eb00009f 	bl	300010fc <puts>
30000e7c:	e59f0138 	ldr	r0, [pc, #312]	; 30000fbc <nand_test+0x164>
30000e80:	eb00009d 	bl	300010fc <puts>
30000e84:	e59f0134 	ldr	r0, [pc, #308]	; 30000fc0 <nand_test+0x168>
30000e88:	eb00009b 	bl	300010fc <puts>
30000e8c:	e59f0130 	ldr	r0, [pc, #304]	; 30000fc4 <nand_test+0x16c>
30000e90:	eb000099 	bl	300010fc <puts>
30000e94:	e59f012c 	ldr	r0, [pc, #300]	; 30000fc8 <nand_test+0x170>
30000e98:	eb000097 	bl	300010fc <puts>
30000e9c:	eb000085 	bl	300010b8 <getchar>
30000ea0:	e1a03000 	mov	r3, r0
30000ea4:	e2433045 	sub	r3, r3, #69	; 0x45
30000ea8:	e353002e 	cmp	r3, #46	; 0x2e
30000eac:	979ff103 	ldrls	pc, [pc, r3, lsl #2]
30000eb0:	ea000039 	b	30000f9c <nand_test+0x144>
30000eb4:	30000f80 	andcc	r0, r0, r0, lsl #31
30000eb8:	30000f9c 	mulcc	r0, ip, pc	; <UNPREDICTABLE>
30000ebc:	30000f9c 	mulcc	r0, ip, pc	; <UNPREDICTABLE>
30000ec0:	30000f9c 	mulcc	r0, ip, pc	; <UNPREDICTABLE>
30000ec4:	30000f9c 	mulcc	r0, ip, pc	; <UNPREDICTABLE>
30000ec8:	30000f9c 	mulcc	r0, ip, pc	; <UNPREDICTABLE>
30000ecc:	30000f9c 	mulcc	r0, ip, pc	; <UNPREDICTABLE>
30000ed0:	30000f9c 	mulcc	r0, ip, pc	; <UNPREDICTABLE>
30000ed4:	30000f9c 	mulcc	r0, ip, pc	; <UNPREDICTABLE>
30000ed8:	30000f9c 	mulcc	r0, ip, pc	; <UNPREDICTABLE>
30000edc:	30000f9c 	mulcc	r0, ip, pc	; <UNPREDICTABLE>
30000ee0:	30000f88 	andcc	r0, r0, r8, lsl #31
30000ee4:	30000f90 	mulcc	r0, r0, pc	; <UNPREDICTABLE>
30000ee8:	30000f78 	andcc	r0, r0, r8, ror pc
30000eec:	30000f70 	andcc	r0, r0, r0, ror pc
30000ef0:	30000f9c 	mulcc	r0, ip, pc	; <UNPREDICTABLE>
30000ef4:	30000f9c 	mulcc	r0, ip, pc	; <UNPREDICTABLE>
30000ef8:	30000f9c 	mulcc	r0, ip, pc	; <UNPREDICTABLE>
30000efc:	30000f9c 	mulcc	r0, ip, pc	; <UNPREDICTABLE>
30000f00:	30000f9c 	mulcc	r0, ip, pc	; <UNPREDICTABLE>
30000f04:	30000f9c 	mulcc	r0, ip, pc	; <UNPREDICTABLE>
30000f08:	30000f9c 	mulcc	r0, ip, pc	; <UNPREDICTABLE>
30000f0c:	30000f9c 	mulcc	r0, ip, pc	; <UNPREDICTABLE>
30000f10:	30000f9c 	mulcc	r0, ip, pc	; <UNPREDICTABLE>
30000f14:	30000f9c 	mulcc	r0, ip, pc	; <UNPREDICTABLE>
30000f18:	30000f9c 	mulcc	r0, ip, pc	; <UNPREDICTABLE>
30000f1c:	30000f9c 	mulcc	r0, ip, pc	; <UNPREDICTABLE>
30000f20:	30000f9c 	mulcc	r0, ip, pc	; <UNPREDICTABLE>
30000f24:	30000f9c 	mulcc	r0, ip, pc	; <UNPREDICTABLE>
30000f28:	30000f9c 	mulcc	r0, ip, pc	; <UNPREDICTABLE>
30000f2c:	30000f9c 	mulcc	r0, ip, pc	; <UNPREDICTABLE>
30000f30:	30000f9c 	mulcc	r0, ip, pc	; <UNPREDICTABLE>
30000f34:	30000f80 	andcc	r0, r0, r0, lsl #31
30000f38:	30000f9c 	mulcc	r0, ip, pc	; <UNPREDICTABLE>
30000f3c:	30000f9c 	mulcc	r0, ip, pc	; <UNPREDICTABLE>
30000f40:	30000f9c 	mulcc	r0, ip, pc	; <UNPREDICTABLE>
30000f44:	30000f9c 	mulcc	r0, ip, pc	; <UNPREDICTABLE>
30000f48:	30000f9c 	mulcc	r0, ip, pc	; <UNPREDICTABLE>
30000f4c:	30000f9c 	mulcc	r0, ip, pc	; <UNPREDICTABLE>
30000f50:	30000f9c 	mulcc	r0, ip, pc	; <UNPREDICTABLE>
30000f54:	30000f9c 	mulcc	r0, ip, pc	; <UNPREDICTABLE>
30000f58:	30000f9c 	mulcc	r0, ip, pc	; <UNPREDICTABLE>
30000f5c:	30000f9c 	mulcc	r0, ip, pc	; <UNPREDICTABLE>
30000f60:	30000f88 	andcc	r0, r0, r8, lsl #31
30000f64:	30000f90 	mulcc	r0, r0, pc	; <UNPREDICTABLE>
30000f68:	30000f78 	andcc	r0, r0, r8, ror pc
30000f6c:	30000f70 	andcc	r0, r0, r0, ror pc
30000f70:	ebfffe81 	bl	3000097c <nand_scan_info>
30000f74:	ea000008 	b	30000f9c <nand_test+0x144>
30000f78:	ebffff94 	bl	30000dd0 <nand_display_data_test>
30000f7c:	ea000006 	b	30000f9c <nand_test+0x144>
30000f80:	ebffffa4 	bl	30000e18 <nand_erase_block_test>
30000f84:	ea000004 	b	30000f9c <nand_test+0x144>
30000f88:	ebffffa9 	bl	30000e34 <nand_page_program_test>
30000f8c:	ea000002 	b	30000f9c <nand_test+0x144>
30000f90:	e3a03001 	mov	r3, #1
30000f94:	e54b3005 	strb	r3, [fp, #-5]
30000f98:	e1a00000 	nop			; (mov r0, r0)
30000f9c:	e55b3005 	ldrb	r3, [fp, #-5]
30000fa0:	e3530000 	cmp	r3, #0
30000fa4:	0affffb2 	beq	30000e74 <nand_test+0x1c>
30000fa8:	e1a00000 	nop			; (mov r0, r0)
30000fac:	e1a00000 	nop			; (mov r0, r0)
30000fb0:	e24bd004 	sub	sp, fp, #4
30000fb4:	e8bd8800 	pop	{fp, pc}
30000fb8:	3000626c 	andcc	r6, r0, ip, ror #4
30000fbc:	3000628c 	andcc	r6, r0, ip, lsl #5
30000fc0:	300062a4 	andcc	r6, r0, r4, lsr #5
30000fc4:	300062c4 	andcc	r6, r0, r4, asr #5
30000fc8:	300062e4 	andcc	r6, r0, r4, ror #5

30000fcc <uart0_init>:
30000fcc:	e52db004 	push	{fp}		; (str fp, [sp, #-4]!)
30000fd0:	e28db000 	add	fp, sp, #0
30000fd4:	e59f3078 	ldr	r3, [pc, #120]	; 30001054 <uart0_init+0x88>
30000fd8:	e5933000 	ldr	r3, [r3]
30000fdc:	e59f2070 	ldr	r2, [pc, #112]	; 30001054 <uart0_init+0x88>
30000fe0:	e3c330f0 	bic	r3, r3, #240	; 0xf0
30000fe4:	e5823000 	str	r3, [r2]
30000fe8:	e59f3064 	ldr	r3, [pc, #100]	; 30001054 <uart0_init+0x88>
30000fec:	e5933000 	ldr	r3, [r3]
30000ff0:	e59f205c 	ldr	r2, [pc, #92]	; 30001054 <uart0_init+0x88>
30000ff4:	e38330a0 	orr	r3, r3, #160	; 0xa0
30000ff8:	e5823000 	str	r3, [r2]
30000ffc:	e59f3054 	ldr	r3, [pc, #84]	; 30001058 <uart0_init+0x8c>
30001000:	e5933000 	ldr	r3, [r3]
30001004:	e59f204c 	ldr	r2, [pc, #76]	; 30001058 <uart0_init+0x8c>
30001008:	e203300c 	and	r3, r3, #12
3000100c:	e5823000 	str	r3, [r2]
30001010:	e3a03205 	mov	r3, #1342177280	; 0x50000000
30001014:	e5933000 	ldr	r3, [r3]
30001018:	e3a02205 	mov	r2, #1342177280	; 0x50000000
3000101c:	e3833003 	orr	r3, r3, #3
30001020:	e5823000 	str	r3, [r2]
30001024:	e59f3030 	ldr	r3, [pc, #48]	; 3000105c <uart0_init+0x90>
30001028:	e3a02023 	mov	r2, #35	; 0x23
3000102c:	e5832000 	str	r2, [r3]
30001030:	e3a03245 	mov	r3, #1342177284	; 0x50000004
30001034:	e5933000 	ldr	r3, [r3]
30001038:	e3a02245 	mov	r2, #1342177284	; 0x50000004
3000103c:	e3833005 	orr	r3, r3, #5
30001040:	e5823000 	str	r3, [r2]
30001044:	e1a00000 	nop			; (mov r0, r0)
30001048:	e28bd000 	add	sp, fp, #0
3000104c:	e49db004 	pop	{fp}		; (ldr fp, [sp], #4)
30001050:	e1a0f00e 	mov	pc, lr
30001054:	56000070 			; <UNDEFINED> instruction: 0x56000070
30001058:	56000078 			; <UNDEFINED> instruction: 0x56000078
3000105c:	50000028 	andpl	r0, r0, r8, lsr #32

30001060 <putchar>:
30001060:	e52db004 	push	{fp}		; (str fp, [sp, #-4]!)
30001064:	e28db000 	add	fp, sp, #0
30001068:	e24dd00c 	sub	sp, sp, #12
3000106c:	e50b0008 	str	r0, [fp, #-8]
30001070:	e1a00000 	nop			; (mov r0, r0)
30001074:	e59f3034 	ldr	r3, [pc, #52]	; 300010b0 <putchar+0x50>
30001078:	e5933000 	ldr	r3, [r3]
3000107c:	e1a03123 	lsr	r3, r3, #2
30001080:	e2033001 	and	r3, r3, #1
30001084:	e3530000 	cmp	r3, #0
30001088:	0afffff9 	beq	30001074 <putchar+0x14>
3000108c:	e59f2020 	ldr	r2, [pc, #32]	; 300010b4 <putchar+0x54>
30001090:	e51b3008 	ldr	r3, [fp, #-8]
30001094:	e20330ff 	and	r3, r3, #255	; 0xff
30001098:	e5c23000 	strb	r3, [r2]
3000109c:	e51b3008 	ldr	r3, [fp, #-8]
300010a0:	e1a00003 	mov	r0, r3
300010a4:	e28bd000 	add	sp, fp, #0
300010a8:	e49db004 	pop	{fp}		; (ldr fp, [sp], #4)
300010ac:	e1a0f00e 	mov	pc, lr
300010b0:	50000010 	andpl	r0, r0, r0, lsl r0
300010b4:	50000020 	andpl	r0, r0, r0, lsr #32

300010b8 <getchar>:
300010b8:	e52db004 	push	{fp}		; (str fp, [sp, #-4]!)
300010bc:	e28db000 	add	fp, sp, #0
300010c0:	e1a00000 	nop			; (mov r0, r0)
300010c4:	e59f3028 	ldr	r3, [pc, #40]	; 300010f4 <getchar+0x3c>
300010c8:	e5933000 	ldr	r3, [r3]
300010cc:	e2033001 	and	r3, r3, #1
300010d0:	e3530000 	cmp	r3, #0
300010d4:	0afffffa 	beq	300010c4 <getchar+0xc>
300010d8:	e59f3018 	ldr	r3, [pc, #24]	; 300010f8 <getchar+0x40>
300010dc:	e5d33000 	ldrb	r3, [r3]
300010e0:	e20330ff 	and	r3, r3, #255	; 0xff
300010e4:	e1a00003 	mov	r0, r3
300010e8:	e28bd000 	add	sp, fp, #0
300010ec:	e49db004 	pop	{fp}		; (ldr fp, [sp], #4)
300010f0:	e1a0f00e 	mov	pc, lr
300010f4:	50000010 	andpl	r0, r0, r0, lsl r0
300010f8:	50000024 	andpl	r0, r0, r4, lsr #32

300010fc <puts>:
300010fc:	e92d4800 	push	{fp, lr}
30001100:	e28db004 	add	fp, sp, #4
30001104:	e24dd008 	sub	sp, sp, #8
30001108:	e50b0008 	str	r0, [fp, #-8]
3000110c:	ea000006 	b	3000112c <puts+0x30>
30001110:	e51b3008 	ldr	r3, [fp, #-8]
30001114:	e5d33000 	ldrb	r3, [r3]
30001118:	e1a00003 	mov	r0, r3
3000111c:	ebffffcf 	bl	30001060 <putchar>
30001120:	e51b3008 	ldr	r3, [fp, #-8]
30001124:	e2833001 	add	r3, r3, #1
30001128:	e50b3008 	str	r3, [fp, #-8]
3000112c:	e51b3008 	ldr	r3, [fp, #-8]
30001130:	e5d33000 	ldrb	r3, [r3]
30001134:	e3530000 	cmp	r3, #0
30001138:	1afffff4 	bne	30001110 <puts+0x14>
3000113c:	e3a03000 	mov	r3, #0
30001140:	e1a00003 	mov	r0, r3
30001144:	e24bd004 	sub	sp, fp, #4
30001148:	e8bd8800 	pop	{fp, pc}

3000114c <print_hex>:
3000114c:	e92d4800 	push	{fp, lr}
30001150:	e28db004 	add	fp, sp, #4
30001154:	e24dd028 	sub	sp, sp, #40	; 0x28
30001158:	e50b0028 	str	r0, [fp, #-40]	; 0xffffffd8
3000115c:	e3a03000 	mov	r3, #0
30001160:	e50b3014 	str	r3, [fp, #-20]	; 0xffffffec
30001164:	e3a03000 	mov	r3, #0
30001168:	e50b3010 	str	r3, [fp, #-16]
3000116c:	e3a03000 	mov	r3, #0
30001170:	e50b3020 	str	r3, [fp, #-32]	; 0xffffffe0
30001174:	e24b301c 	sub	r3, fp, #28
30001178:	e3a02000 	mov	r2, #0
3000117c:	e5832000 	str	r2, [r3]
30001180:	e5c32004 	strb	r2, [r3, #4]
30001184:	e3a03000 	mov	r3, #0
30001188:	e50b3008 	str	r3, [fp, #-8]
3000118c:	ea00000e 	b	300011cc <print_hex+0x80>
30001190:	e51b3028 	ldr	r3, [fp, #-40]	; 0xffffffd8
30001194:	e20330ff 	and	r3, r3, #255	; 0xff
30001198:	e203300f 	and	r3, r3, #15
3000119c:	e20310ff 	and	r1, r3, #255	; 0xff
300011a0:	e24b2014 	sub	r2, fp, #20
300011a4:	e51b3008 	ldr	r3, [fp, #-8]
300011a8:	e0823003 	add	r3, r2, r3
300011ac:	e1a02001 	mov	r2, r1
300011b0:	e5c32000 	strb	r2, [r3]
300011b4:	e51b3028 	ldr	r3, [fp, #-40]	; 0xffffffd8
300011b8:	e1a03223 	lsr	r3, r3, #4
300011bc:	e50b3028 	str	r3, [fp, #-40]	; 0xffffffd8
300011c0:	e51b3008 	ldr	r3, [fp, #-8]
300011c4:	e2833001 	add	r3, r3, #1
300011c8:	e50b3008 	str	r3, [fp, #-8]
300011cc:	e51b3008 	ldr	r3, [fp, #-8]
300011d0:	e3530007 	cmp	r3, #7
300011d4:	daffffed 	ble	30001190 <print_hex+0x44>
300011d8:	e3a03007 	mov	r3, #7
300011dc:	e50b300c 	str	r3, [fp, #-12]
300011e0:	ea000030 	b	300012a8 <print_hex+0x15c>
300011e4:	e51b300c 	ldr	r3, [fp, #-12]
300011e8:	e2633007 	rsb	r3, r3, #7
300011ec:	e2433004 	sub	r3, r3, #4
300011f0:	e083300b 	add	r3, r3, fp
300011f4:	e5533010 	ldrb	r3, [r3, #-16]
300011f8:	e3530009 	cmp	r3, #9
300011fc:	8a00000c 	bhi	30001234 <print_hex+0xe8>
30001200:	e51b300c 	ldr	r3, [fp, #-12]
30001204:	e2633007 	rsb	r3, r3, #7
30001208:	e2433004 	sub	r3, r3, #4
3000120c:	e083300b 	add	r3, r3, fp
30001210:	e5533010 	ldrb	r3, [r3, #-16]
30001214:	e2833030 	add	r3, r3, #48	; 0x30
30001218:	e20310ff 	and	r1, r3, #255	; 0xff
3000121c:	e24b2020 	sub	r2, fp, #32
30001220:	e51b300c 	ldr	r3, [fp, #-12]
30001224:	e0823003 	add	r3, r2, r3
30001228:	e1a02001 	mov	r2, r1
3000122c:	e5c32000 	strb	r2, [r3]
30001230:	ea000019 	b	3000129c <print_hex+0x150>
30001234:	e51b300c 	ldr	r3, [fp, #-12]
30001238:	e2633007 	rsb	r3, r3, #7
3000123c:	e2433004 	sub	r3, r3, #4
30001240:	e083300b 	add	r3, r3, fp
30001244:	e5533010 	ldrb	r3, [r3, #-16]
30001248:	e3530009 	cmp	r3, #9
3000124c:	9a000012 	bls	3000129c <print_hex+0x150>
30001250:	e51b300c 	ldr	r3, [fp, #-12]
30001254:	e2633007 	rsb	r3, r3, #7
30001258:	e2433004 	sub	r3, r3, #4
3000125c:	e083300b 	add	r3, r3, fp
30001260:	e5533010 	ldrb	r3, [r3, #-16]
30001264:	e353000f 	cmp	r3, #15
30001268:	8a00000b 	bhi	3000129c <print_hex+0x150>
3000126c:	e51b300c 	ldr	r3, [fp, #-12]
30001270:	e2633007 	rsb	r3, r3, #7
30001274:	e2433004 	sub	r3, r3, #4
30001278:	e083300b 	add	r3, r3, fp
3000127c:	e5533010 	ldrb	r3, [r3, #-16]
30001280:	e2833037 	add	r3, r3, #55	; 0x37
30001284:	e20310ff 	and	r1, r3, #255	; 0xff
30001288:	e24b2020 	sub	r2, fp, #32
3000128c:	e51b300c 	ldr	r3, [fp, #-12]
30001290:	e0823003 	add	r3, r2, r3
30001294:	e1a02001 	mov	r2, r1
30001298:	e5c32000 	strb	r2, [r3]
3000129c:	e51b300c 	ldr	r3, [fp, #-12]
300012a0:	e2433001 	sub	r3, r3, #1
300012a4:	e50b300c 	str	r3, [fp, #-12]
300012a8:	e51b300c 	ldr	r3, [fp, #-12]
300012ac:	e3530000 	cmp	r3, #0
300012b0:	aaffffcb 	bge	300011e4 <print_hex+0x98>
300012b4:	e59f0018 	ldr	r0, [pc, #24]	; 300012d4 <print_hex+0x188>
300012b8:	ebffff8f 	bl	300010fc <puts>
300012bc:	e24b3020 	sub	r3, fp, #32
300012c0:	e1a00003 	mov	r0, r3
300012c4:	ebffff8c 	bl	300010fc <puts>
300012c8:	e1a00000 	nop			; (mov r0, r0)
300012cc:	e24bd004 	sub	sp, fp, #4
300012d0:	e8bd8800 	pop	{fp, pc}
300012d4:	300062f8 	strdcc	r6, [r0], -r8

300012d8 <print_hex_byte>:
300012d8:	e92d4800 	push	{fp, lr}
300012dc:	e28db004 	add	fp, sp, #4
300012e0:	e24dd010 	sub	sp, sp, #16
300012e4:	e1a03000 	mov	r3, r0
300012e8:	e54b300d 	strb	r3, [fp, #-13]
300012ec:	e59f309c 	ldr	r3, [pc, #156]	; 30001390 <print_hex_byte+0xb8>
300012f0:	e1d330b0 	ldrh	r3, [r3]
300012f4:	e14b30bc 	strh	r3, [fp, #-12]
300012f8:	e3a03000 	mov	r3, #0
300012fc:	e54b300a 	strb	r3, [fp, #-10]
30001300:	e55b300d 	ldrb	r3, [fp, #-13]
30001304:	e203300f 	and	r3, r3, #15
30001308:	e54b3005 	strb	r3, [fp, #-5]
3000130c:	e55b300d 	ldrb	r3, [fp, #-13]
30001310:	e1a03223 	lsr	r3, r3, #4
30001314:	e54b3006 	strb	r3, [fp, #-6]
30001318:	e55b3005 	ldrb	r3, [fp, #-5]
3000131c:	e3530009 	cmp	r3, #9
30001320:	8a000004 	bhi	30001338 <print_hex_byte+0x60>
30001324:	e55b3005 	ldrb	r3, [fp, #-5]
30001328:	e2833030 	add	r3, r3, #48	; 0x30
3000132c:	e20330ff 	and	r3, r3, #255	; 0xff
30001330:	e54b300b 	strb	r3, [fp, #-11]
30001334:	ea000003 	b	30001348 <print_hex_byte+0x70>
30001338:	e55b3005 	ldrb	r3, [fp, #-5]
3000133c:	e2833037 	add	r3, r3, #55	; 0x37
30001340:	e20330ff 	and	r3, r3, #255	; 0xff
30001344:	e54b300b 	strb	r3, [fp, #-11]
30001348:	e55b3006 	ldrb	r3, [fp, #-6]
3000134c:	e3530009 	cmp	r3, #9
30001350:	8a000004 	bhi	30001368 <print_hex_byte+0x90>
30001354:	e55b3006 	ldrb	r3, [fp, #-6]
30001358:	e2833030 	add	r3, r3, #48	; 0x30
3000135c:	e20330ff 	and	r3, r3, #255	; 0xff
30001360:	e54b300c 	strb	r3, [fp, #-12]
30001364:	ea000003 	b	30001378 <print_hex_byte+0xa0>
30001368:	e55b3006 	ldrb	r3, [fp, #-6]
3000136c:	e2833037 	add	r3, r3, #55	; 0x37
30001370:	e20330ff 	and	r3, r3, #255	; 0xff
30001374:	e54b300c 	strb	r3, [fp, #-12]
30001378:	e24b300c 	sub	r3, fp, #12
3000137c:	e1a00003 	mov	r0, r3
30001380:	ebffff5d 	bl	300010fc <puts>
30001384:	e1a00000 	nop			; (mov r0, r0)
30001388:	e24bd004 	sub	sp, fp, #4
3000138c:	e8bd8800 	pop	{fp, pc}
30001390:	300062fc 	strdcc	r6, [r0], -ip

30001394 <print_data>:
30001394:	e92d4800 	push	{fp, lr}
30001398:	e28db004 	add	fp, sp, #4
3000139c:	e24dd008 	sub	sp, sp, #8
300013a0:	e50b0008 	str	r0, [fp, #-8]
300013a4:	e50b100c 	str	r1, [fp, #-12]
300013a8:	e51b0008 	ldr	r0, [fp, #-8]
300013ac:	ebffff52 	bl	300010fc <puts>
300013b0:	e51b000c 	ldr	r0, [fp, #-12]
300013b4:	ebffff64 	bl	3000114c <print_hex>
300013b8:	e59f000c 	ldr	r0, [pc, #12]	; 300013cc <print_data+0x38>
300013bc:	ebffff4e 	bl	300010fc <puts>
300013c0:	e1a00000 	nop			; (mov r0, r0)
300013c4:	e24bd004 	sub	sp, fp, #4
300013c8:	e8bd8800 	pop	{fp, pc}
300013cc:	30006300 	andcc	r6, r0, r0, lsl #6

300013d0 <print_data_unit>:
300013d0:	e92d4800 	push	{fp, lr}
300013d4:	e28db004 	add	fp, sp, #4
300013d8:	e24dd010 	sub	sp, sp, #16
300013dc:	e50b0008 	str	r0, [fp, #-8]
300013e0:	e50b100c 	str	r1, [fp, #-12]
300013e4:	e50b2010 	str	r2, [fp, #-16]
300013e8:	e51b0008 	ldr	r0, [fp, #-8]
300013ec:	ebffff42 	bl	300010fc <puts>
300013f0:	e51b000c 	ldr	r0, [fp, #-12]
300013f4:	ebffff54 	bl	3000114c <print_hex>
300013f8:	e51b0010 	ldr	r0, [fp, #-16]
300013fc:	ebffff3e 	bl	300010fc <puts>
30001400:	e59f000c 	ldr	r0, [pc, #12]	; 30001414 <print_data_unit+0x44>
30001404:	ebffff3c 	bl	300010fc <puts>
30001408:	e1a00000 	nop			; (mov r0, r0)
3000140c:	e24bd004 	sub	sp, fp, #4
30001410:	e8bd8800 	pop	{fp, pc}
30001414:	30006300 	andcc	r6, r0, r0, lsl #6

30001418 <timer_uart_callback>:
30001418:	e92d4800 	push	{fp, lr}
3000141c:	e28db004 	add	fp, sp, #4
30001420:	e59f3038 	ldr	r3, [pc, #56]	; 30001460 <timer_uart_callback+0x48>
30001424:	e5933000 	ldr	r3, [r3]
30001428:	e2833001 	add	r3, r3, #1
3000142c:	e59f202c 	ldr	r2, [pc, #44]	; 30001460 <timer_uart_callback+0x48>
30001430:	e5823000 	str	r3, [r2]
30001434:	e59f3024 	ldr	r3, [pc, #36]	; 30001460 <timer_uart_callback+0x48>
30001438:	e5933000 	ldr	r3, [r3]
3000143c:	e3530064 	cmp	r3, #100	; 0x64
30001440:	1a000004 	bne	30001458 <timer_uart_callback+0x40>
30001444:	e59f3014 	ldr	r3, [pc, #20]	; 30001460 <timer_uart_callback+0x48>
30001448:	e3a02000 	mov	r2, #0
3000144c:	e5832000 	str	r2, [r3]
30001450:	e59f000c 	ldr	r0, [pc, #12]	; 30001464 <timer_uart_callback+0x4c>
30001454:	ebffff28 	bl	300010fc <puts>
30001458:	e1a00000 	nop			; (mov r0, r0)
3000145c:	e8bd8800 	pop	{fp, pc}
30001460:	300076c0 	andcc	r7, r0, r0, asr #13
30001464:	30006304 	andcc	r6, r0, r4, lsl #6

30001468 <print1>:
30001468:	e92d4800 	push	{fp, lr}
3000146c:	e28db004 	add	fp, sp, #4
30001470:	e59f0008 	ldr	r0, [pc, #8]	; 30001480 <print1+0x18>
30001474:	ebffff20 	bl	300010fc <puts>
30001478:	e1a00000 	nop			; (mov r0, r0)
3000147c:	e8bd8800 	pop	{fp, pc}
30001480:	3000631c 	andcc	r6, r0, ip, lsl r3

30001484 <print2>:
30001484:	e92d4800 	push	{fp, lr}
30001488:	e28db004 	add	fp, sp, #4
3000148c:	e59f0008 	ldr	r0, [pc, #8]	; 3000149c <print2+0x18>
30001490:	ebffff19 	bl	300010fc <puts>
30001494:	e1a00000 	nop			; (mov r0, r0)
30001498:	e8bd8800 	pop	{fp, pc}
3000149c:	30006328 	andcc	r6, r0, r8, lsr #6

300014a0 <main>:
300014a0:	e92d4800 	push	{fp, lr}
300014a4:	e28db004 	add	fp, sp, #4
300014a8:	e24dd008 	sub	sp, sp, #8
300014ac:	eb000034 	bl	30001584 <key_interrupt_init>
300014b0:	eb0000f9 	bl	3000189c <timer4_init>
300014b4:	eb000df4 	bl	30004c8c <spi_control_init>
300014b8:	eb000ee8 	bl	30005060 <dht11_init>
300014bc:	e24b200c 	sub	r2, fp, #12
300014c0:	e24b3008 	sub	r3, fp, #8
300014c4:	e1a01002 	mov	r1, r2
300014c8:	e1a00003 	mov	r0, r3
300014cc:	eb000f2e 	bl	3000518c <dht11_read_temp_and_humidity>
300014d0:	e3a00e7d 	mov	r0, #2000	; 0x7d0
300014d4:	eb0001ae 	bl	30001b94 <delay>
300014d8:	eafffff7 	b	300014bc <main+0x1c>

300014dc <undefined_exception>:
300014dc:	e92d4800 	push	{fp, lr}
300014e0:	e28db004 	add	fp, sp, #4
300014e4:	e24dd008 	sub	sp, sp, #8
300014e8:	e50b0008 	str	r0, [fp, #-8]
300014ec:	e50b100c 	str	r1, [fp, #-12]
300014f0:	e59f001c 	ldr	r0, [pc, #28]	; 30001514 <undefined_exception+0x38>
300014f4:	ebffff00 	bl	300010fc <puts>
300014f8:	e51b0008 	ldr	r0, [fp, #-8]
300014fc:	ebffff12 	bl	3000114c <print_hex>
30001500:	e51b000c 	ldr	r0, [fp, #-12]
30001504:	ebfffefc 	bl	300010fc <puts>
30001508:	e1a00000 	nop			; (mov r0, r0)
3000150c:	e24bd004 	sub	sp, fp, #4
30001510:	e8bd8800 	pop	{fp, pc}
30001514:	30006330 	andcc	r6, r0, r0, lsr r3

30001518 <swi_exception>:
30001518:	e92d4800 	push	{fp, lr}
3000151c:	e28db004 	add	fp, sp, #4
30001520:	e24dd008 	sub	sp, sp, #8
30001524:	e50b0008 	str	r0, [fp, #-8]
30001528:	e50b100c 	str	r1, [fp, #-12]
3000152c:	e51b3008 	ldr	r3, [fp, #-8]
30001530:	e5933000 	ldr	r3, [r3]
30001534:	e3c334ff 	bic	r3, r3, #-16777216	; 0xff000000
30001538:	e1a00003 	mov	r0, r3
3000153c:	ebffff02 	bl	3000114c <print_hex>
30001540:	e51b000c 	ldr	r0, [fp, #-12]
30001544:	ebfffeec 	bl	300010fc <puts>
30001548:	e1a00000 	nop			; (mov r0, r0)
3000154c:	e24bd004 	sub	sp, fp, #4
30001550:	e8bd8800 	pop	{fp, pc}

30001554 <interrupt_init>:
30001554:	e52db004 	push	{fp}		; (str fp, [sp, #-4]!)
30001558:	e28db000 	add	fp, sp, #0
3000155c:	e59f301c 	ldr	r3, [pc, #28]	; 30001580 <interrupt_init+0x2c>
30001560:	e5933000 	ldr	r3, [r3]
30001564:	e59f2014 	ldr	r2, [pc, #20]	; 30001580 <interrupt_init+0x2c>
30001568:	e3c33025 	bic	r3, r3, #37	; 0x25
3000156c:	e5823000 	str	r3, [r2]
30001570:	e1a00000 	nop			; (mov r0, r0)
30001574:	e28bd000 	add	sp, fp, #0
30001578:	e49db004 	pop	{fp}		; (ldr fp, [sp], #4)
3000157c:	e1a0f00e 	mov	pc, lr
30001580:	4a000008 	bmi	300015a8 <key_interrupt_init+0x24>

30001584 <key_interrupt_init>:
30001584:	e92d4800 	push	{fp, lr}
30001588:	e28db004 	add	fp, sp, #4
3000158c:	e59f308c 	ldr	r3, [pc, #140]	; 30001620 <key_interrupt_init+0x9c>
30001590:	e5933000 	ldr	r3, [r3]
30001594:	e59f2084 	ldr	r2, [pc, #132]	; 30001620 <key_interrupt_init+0x9c>
30001598:	e3833022 	orr	r3, r3, #34	; 0x22
3000159c:	e5823000 	str	r3, [r2]
300015a0:	e59f307c 	ldr	r3, [pc, #124]	; 30001624 <key_interrupt_init+0xa0>
300015a4:	e5933000 	ldr	r3, [r3]
300015a8:	e59f2074 	ldr	r2, [pc, #116]	; 30001624 <key_interrupt_init+0xa0>
300015ac:	e3833080 	orr	r3, r3, #128	; 0x80
300015b0:	e5823000 	str	r3, [r2]
300015b4:	e59f306c 	ldr	r3, [pc, #108]	; 30001628 <key_interrupt_init+0xa4>
300015b8:	e5933000 	ldr	r3, [r3]
300015bc:	e59f2064 	ldr	r2, [pc, #100]	; 30001628 <key_interrupt_init+0xa4>
300015c0:	e3833c07 	orr	r3, r3, #1792	; 0x700
300015c4:	e3833007 	orr	r3, r3, #7
300015c8:	e5823000 	str	r3, [r2]
300015cc:	e59f3058 	ldr	r3, [pc, #88]	; 3000162c <key_interrupt_init+0xa8>
300015d0:	e5933000 	ldr	r3, [r3]
300015d4:	e59f2050 	ldr	r2, [pc, #80]	; 3000162c <key_interrupt_init+0xa8>
300015d8:	e3833a07 	orr	r3, r3, #28672	; 0x7000
300015dc:	e5823000 	str	r3, [r2]
300015e0:	e59f3048 	ldr	r3, [pc, #72]	; 30001630 <key_interrupt_init+0xac>
300015e4:	e5933000 	ldr	r3, [r3]
300015e8:	e59f2040 	ldr	r2, [pc, #64]	; 30001630 <key_interrupt_init+0xac>
300015ec:	e3c33b02 	bic	r3, r3, #2048	; 0x800
300015f0:	e5823000 	str	r3, [r2]
300015f4:	e59f1038 	ldr	r1, [pc, #56]	; 30001634 <key_interrupt_init+0xb0>
300015f8:	e3a00000 	mov	r0, #0
300015fc:	eb00007b 	bl	300017f0 <register_irq>
30001600:	e59f102c 	ldr	r1, [pc, #44]	; 30001634 <key_interrupt_init+0xb0>
30001604:	e3a00002 	mov	r0, #2
30001608:	eb000078 	bl	300017f0 <register_irq>
3000160c:	e59f1020 	ldr	r1, [pc, #32]	; 30001634 <key_interrupt_init+0xb0>
30001610:	e3a00005 	mov	r0, #5
30001614:	eb000075 	bl	300017f0 <register_irq>
30001618:	e1a00000 	nop			; (mov r0, r0)
3000161c:	e8bd8800 	pop	{fp, pc}
30001620:	56000050 			; <UNDEFINED> instruction: 0x56000050
30001624:	56000060 	strpl	r0, [r0], -r0, rrx
30001628:	56000088 	strpl	r0, [r0], -r8, lsl #1
3000162c:	5600008c 	strpl	r0, [r0], -ip, lsl #1
30001630:	560000a4 	strpl	r0, [r0], -r4, lsr #1
30001634:	300016c8 	andcc	r1, r0, r8, asr #13

30001638 <interrupt_handler>:
30001638:	e92d4800 	push	{fp, lr}
3000163c:	e28db004 	add	fp, sp, #4
30001640:	e24dd008 	sub	sp, sp, #8
30001644:	e59f3070 	ldr	r3, [pc, #112]	; 300016bc <interrupt_handler+0x84>
30001648:	e5933000 	ldr	r3, [r3]
3000164c:	e50b3008 	str	r3, [fp, #-8]
30001650:	e59f2068 	ldr	r2, [pc, #104]	; 300016c0 <interrupt_handler+0x88>
30001654:	e51b3008 	ldr	r3, [fp, #-8]
30001658:	e7923103 	ldr	r3, [r2, r3, lsl #2]
3000165c:	e51b0008 	ldr	r0, [fp, #-8]
30001660:	e1a0e00f 	mov	lr, pc
30001664:	e1a0f003 	mov	pc, r3
30001668:	e3a0344a 	mov	r3, #1241513984	; 0x4a000000
3000166c:	e5933000 	ldr	r3, [r3]
30001670:	e3a01001 	mov	r1, #1
30001674:	e51b2008 	ldr	r2, [fp, #-8]
30001678:	e1a02211 	lsl	r2, r1, r2
3000167c:	e1a01002 	mov	r1, r2
30001680:	e3a0244a 	mov	r2, #1241513984	; 0x4a000000
30001684:	e1833001 	orr	r3, r3, r1
30001688:	e5823000 	str	r3, [r2]
3000168c:	e59f3030 	ldr	r3, [pc, #48]	; 300016c4 <interrupt_handler+0x8c>
30001690:	e5933000 	ldr	r3, [r3]
30001694:	e3a01001 	mov	r1, #1
30001698:	e51b2008 	ldr	r2, [fp, #-8]
3000169c:	e1a02211 	lsl	r2, r1, r2
300016a0:	e1a01002 	mov	r1, r2
300016a4:	e59f2018 	ldr	r2, [pc, #24]	; 300016c4 <interrupt_handler+0x8c>
300016a8:	e1833001 	orr	r3, r3, r1
300016ac:	e5823000 	str	r3, [r2]
300016b0:	e1a00000 	nop			; (mov r0, r0)
300016b4:	e24bd004 	sub	sp, fp, #4
300016b8:	e8bd8800 	pop	{fp, pc}
300016bc:	4a000014 	bmi	30001714 <key_handler+0x4c>
300016c0:	300076c4 	andcc	r7, r0, r4, asr #13
300016c4:	4a000010 	bmi	3000170c <key_handler+0x44>

300016c8 <key_handler>:
300016c8:	e92d4800 	push	{fp, lr}
300016cc:	e28db004 	add	fp, sp, #4
300016d0:	e24dd010 	sub	sp, sp, #16
300016d4:	e50b0010 	str	r0, [fp, #-16]
300016d8:	e59f30e8 	ldr	r3, [pc, #232]	; 300017c8 <key_handler+0x100>
300016dc:	e5933000 	ldr	r3, [r3]
300016e0:	e50b3008 	str	r3, [fp, #-8]
300016e4:	e51b3010 	ldr	r3, [fp, #-16]
300016e8:	e3530000 	cmp	r3, #0
300016ec:	1a00000e 	bne	3000172c <key_handler+0x64>
300016f0:	e59f30d4 	ldr	r3, [pc, #212]	; 300017cc <key_handler+0x104>
300016f4:	e5933000 	ldr	r3, [r3]
300016f8:	e2033001 	and	r3, r3, #1
300016fc:	e3530000 	cmp	r3, #0
30001700:	0a000006 	beq	30001720 <key_handler+0x58>
30001704:	e59f00c4 	ldr	r0, [pc, #196]	; 300017d0 <key_handler+0x108>
30001708:	ebfffe7b 	bl	300010fc <puts>
3000170c:	e59f30c0 	ldr	r3, [pc, #192]	; 300017d4 <key_handler+0x10c>
30001710:	e5933000 	ldr	r3, [r3]
30001714:	e1a00003 	mov	r0, r3
30001718:	ebfffe8b 	bl	3000114c <print_hex>
3000171c:	ea000023 	b	300017b0 <key_handler+0xe8>
30001720:	e59f00b0 	ldr	r0, [pc, #176]	; 300017d8 <key_handler+0x110>
30001724:	ebfffe74 	bl	300010fc <puts>
30001728:	ea000020 	b	300017b0 <key_handler+0xe8>
3000172c:	e51b3010 	ldr	r3, [fp, #-16]
30001730:	e3530002 	cmp	r3, #2
30001734:	1a00000b 	bne	30001768 <key_handler+0xa0>
30001738:	e59f308c 	ldr	r3, [pc, #140]	; 300017cc <key_handler+0x104>
3000173c:	e5933000 	ldr	r3, [r3]
30001740:	e1a03123 	lsr	r3, r3, #2
30001744:	e2033001 	and	r3, r3, #1
30001748:	e3530000 	cmp	r3, #0
3000174c:	0a000002 	beq	3000175c <key_handler+0x94>
30001750:	e59f0084 	ldr	r0, [pc, #132]	; 300017dc <key_handler+0x114>
30001754:	ebfffe68 	bl	300010fc <puts>
30001758:	ea000014 	b	300017b0 <key_handler+0xe8>
3000175c:	e59f007c 	ldr	r0, [pc, #124]	; 300017e0 <key_handler+0x118>
30001760:	ebfffe65 	bl	300010fc <puts>
30001764:	ea000011 	b	300017b0 <key_handler+0xe8>
30001768:	e51b3010 	ldr	r3, [fp, #-16]
3000176c:	e3530005 	cmp	r3, #5
30001770:	1a00000e 	bne	300017b0 <key_handler+0xe8>
30001774:	e51b3008 	ldr	r3, [fp, #-8]
30001778:	e2033b02 	and	r3, r3, #2048	; 0x800
3000177c:	e3530000 	cmp	r3, #0
30001780:	0a00000a 	beq	300017b0 <key_handler+0xe8>
30001784:	e59f3058 	ldr	r3, [pc, #88]	; 300017e4 <key_handler+0x11c>
30001788:	e5933000 	ldr	r3, [r3]
3000178c:	e1a031a3 	lsr	r3, r3, #3
30001790:	e2033001 	and	r3, r3, #1
30001794:	e3530000 	cmp	r3, #0
30001798:	0a000002 	beq	300017a8 <key_handler+0xe0>
3000179c:	e59f0044 	ldr	r0, [pc, #68]	; 300017e8 <key_handler+0x120>
300017a0:	ebfffe55 	bl	300010fc <puts>
300017a4:	ea000001 	b	300017b0 <key_handler+0xe8>
300017a8:	e59f003c 	ldr	r0, [pc, #60]	; 300017ec <key_handler+0x124>
300017ac:	ebfffe52 	bl	300010fc <puts>
300017b0:	e59f2010 	ldr	r2, [pc, #16]	; 300017c8 <key_handler+0x100>
300017b4:	e51b3008 	ldr	r3, [fp, #-8]
300017b8:	e5823000 	str	r3, [r2]
300017bc:	e1a00000 	nop			; (mov r0, r0)
300017c0:	e24bd004 	sub	sp, fp, #4
300017c4:	e8bd8800 	pop	{fp, pc}
300017c8:	560000a8 	strpl	r0, [r0], -r8, lsr #1
300017cc:	56000054 			; <UNDEFINED> instruction: 0x56000054
300017d0:	30006338 	andcc	r6, r0, r8, lsr r3
300017d4:	51000040 	tstpl	r0, r0, asr #32
300017d8:	30006348 	andcc	r6, r0, r8, asr #6
300017dc:	30006358 	andcc	r6, r0, r8, asr r3
300017e0:	30006368 	andcc	r6, r0, r8, ror #6
300017e4:	56000064 	strpl	r0, [r0], -r4, rrx
300017e8:	30006378 	andcc	r6, r0, r8, ror r3
300017ec:	30006388 	andcc	r6, r0, r8, lsl #7

300017f0 <register_irq>:
300017f0:	e52db004 	push	{fp}		; (str fp, [sp, #-4]!)
300017f4:	e28db000 	add	fp, sp, #0
300017f8:	e24dd00c 	sub	sp, sp, #12
300017fc:	e50b0008 	str	r0, [fp, #-8]
30001800:	e50b100c 	str	r1, [fp, #-12]
30001804:	e59f3040 	ldr	r3, [pc, #64]	; 3000184c <register_irq+0x5c>
30001808:	e5933000 	ldr	r3, [r3]
3000180c:	e3a01001 	mov	r1, #1
30001810:	e51b2008 	ldr	r2, [fp, #-8]
30001814:	e1a02211 	lsl	r2, r1, r2
30001818:	e1e02002 	mvn	r2, r2
3000181c:	e1a01002 	mov	r1, r2
30001820:	e59f2024 	ldr	r2, [pc, #36]	; 3000184c <register_irq+0x5c>
30001824:	e0033001 	and	r3, r3, r1
30001828:	e5823000 	str	r3, [r2]
3000182c:	e59f101c 	ldr	r1, [pc, #28]	; 30001850 <register_irq+0x60>
30001830:	e51b3008 	ldr	r3, [fp, #-8]
30001834:	e51b200c 	ldr	r2, [fp, #-12]
30001838:	e7812103 	str	r2, [r1, r3, lsl #2]
3000183c:	e1a00000 	nop			; (mov r0, r0)
30001840:	e28bd000 	add	sp, fp, #0
30001844:	e49db004 	pop	{fp}		; (ldr fp, [sp], #4)
30001848:	e1a0f00e 	mov	pc, lr
3000184c:	4a000008 	bmi	30001874 <disable_irq+0x20>
30001850:	300076c4 	andcc	r7, r0, r4, asr #13

30001854 <disable_irq>:
30001854:	e52db004 	push	{fp}		; (str fp, [sp, #-4]!)
30001858:	e28db000 	add	fp, sp, #0
3000185c:	e10f0000 	mrs	r0, CPSR
30001860:	e3800080 	orr	r0, r0, #128	; 0x80
30001864:	e129f000 	msr	CPSR_fc, r0
30001868:	e1a00000 	nop			; (mov r0, r0)
3000186c:	e28bd000 	add	sp, fp, #0
30001870:	e49db004 	pop	{fp}		; (ldr fp, [sp], #4)
30001874:	e1a0f00e 	mov	pc, lr

30001878 <enable_irq>:
30001878:	e52db004 	push	{fp}		; (str fp, [sp, #-4]!)
3000187c:	e28db000 	add	fp, sp, #0
30001880:	e10f0000 	mrs	r0, CPSR
30001884:	e3c00080 	bic	r0, r0, #128	; 0x80
30001888:	e129f000 	msr	CPSR_fc, r0
3000188c:	e1a00000 	nop			; (mov r0, r0)
30001890:	e28bd000 	add	sp, fp, #0
30001894:	e49db004 	pop	{fp}		; (ldr fp, [sp], #4)
30001898:	e1a0f00e 	mov	pc, lr

3000189c <timer4_init>:
3000189c:	e92d4800 	push	{fp, lr}
300018a0:	e28db004 	add	fp, sp, #4
300018a4:	e3a03451 	mov	r3, #1358954496	; 0x51000000
300018a8:	e5933000 	ldr	r3, [r3]
300018ac:	e3a02451 	mov	r2, #1358954496	; 0x51000000
300018b0:	e3833c21 	orr	r3, r3, #8448	; 0x2100
300018b4:	e5823000 	str	r3, [r2]
300018b8:	e59f3068 	ldr	r3, [pc, #104]	; 30001928 <timer4_init+0x8c>
300018bc:	e59f2068 	ldr	r2, [pc, #104]	; 3000192c <timer4_init+0x90>
300018c0:	e5832000 	str	r2, [r3]
300018c4:	e59f3064 	ldr	r3, [pc, #100]	; 30001930 <timer4_init+0x94>
300018c8:	e5933000 	ldr	r3, [r3]
300018cc:	e59f205c 	ldr	r2, [pc, #92]	; 30001930 <timer4_init+0x94>
300018d0:	e3833602 	orr	r3, r3, #2097152	; 0x200000
300018d4:	e5823000 	str	r3, [r2]
300018d8:	e59f3050 	ldr	r3, [pc, #80]	; 30001930 <timer4_init+0x94>
300018dc:	e5933000 	ldr	r3, [r3]
300018e0:	e59f2048 	ldr	r2, [pc, #72]	; 30001930 <timer4_init+0x94>
300018e4:	e3833501 	orr	r3, r3, #4194304	; 0x400000
300018e8:	e5823000 	str	r3, [r2]
300018ec:	e59f303c 	ldr	r3, [pc, #60]	; 30001930 <timer4_init+0x94>
300018f0:	e5933000 	ldr	r3, [r3]
300018f4:	e59f2034 	ldr	r2, [pc, #52]	; 30001930 <timer4_init+0x94>
300018f8:	e3c33602 	bic	r3, r3, #2097152	; 0x200000
300018fc:	e5823000 	str	r3, [r2]
30001900:	e59f3028 	ldr	r3, [pc, #40]	; 30001930 <timer4_init+0x94>
30001904:	e5933000 	ldr	r3, [r3]
30001908:	e59f2020 	ldr	r2, [pc, #32]	; 30001930 <timer4_init+0x94>
3000190c:	e3833601 	orr	r3, r3, #1048576	; 0x100000
30001910:	e5823000 	str	r3, [r2]
30001914:	e59f1018 	ldr	r1, [pc, #24]	; 30001934 <timer4_init+0x98>
30001918:	e3a0000e 	mov	r0, #14
3000191c:	ebffffb3 	bl	300017f0 <register_irq>
30001920:	e1a00000 	nop			; (mov r0, r0)
30001924:	e8bd8800 	pop	{fp, pc}
30001928:	5100003c 	tstpl	r0, ip, lsr r0
3000192c:	00001388 	andeq	r1, r0, r8, lsl #7
30001930:	51000008 	tstpl	r0, r8
30001934:	30001938 	andcc	r1, r0, r8, lsr r9

30001938 <timer4_callback>:
30001938:	e92d4800 	push	{fp, lr}
3000193c:	e28db004 	add	fp, sp, #4
30001940:	e24dd010 	sub	sp, sp, #16
30001944:	e50b0010 	str	r0, [fp, #-16]
30001948:	e59f306c 	ldr	r3, [pc, #108]	; 300019bc <timer4_callback+0x84>
3000194c:	e5933000 	ldr	r3, [r3]
30001950:	e2833001 	add	r3, r3, #1
30001954:	e59f2060 	ldr	r2, [pc, #96]	; 300019bc <timer4_callback+0x84>
30001958:	e5823000 	str	r3, [r2]
3000195c:	e3a03000 	mov	r3, #0
30001960:	e50b3008 	str	r3, [fp, #-8]
30001964:	ea00000d 	b	300019a0 <timer4_callback+0x68>
30001968:	e59f2050 	ldr	r2, [pc, #80]	; 300019c0 <timer4_callback+0x88>
3000196c:	e51b3008 	ldr	r3, [fp, #-8]
30001970:	e7923103 	ldr	r3, [r2, r3, lsl #2]
30001974:	e3530000 	cmp	r3, #0
30001978:	0a000005 	beq	30001994 <timer4_callback+0x5c>
3000197c:	e59f203c 	ldr	r2, [pc, #60]	; 300019c0 <timer4_callback+0x88>
30001980:	e51b3008 	ldr	r3, [fp, #-8]
30001984:	e7923103 	ldr	r3, [r2, r3, lsl #2]
30001988:	e5933004 	ldr	r3, [r3, #4]
3000198c:	e1a0e00f 	mov	lr, pc
30001990:	e1a0f003 	mov	pc, r3
30001994:	e51b3008 	ldr	r3, [fp, #-8]
30001998:	e2833001 	add	r3, r3, #1
3000199c:	e50b3008 	str	r3, [fp, #-8]
300019a0:	e51b3008 	ldr	r3, [fp, #-8]
300019a4:	e3530009 	cmp	r3, #9
300019a8:	daffffee 	ble	30001968 <timer4_callback+0x30>
300019ac:	e1a00000 	nop			; (mov r0, r0)
300019b0:	e1a00000 	nop			; (mov r0, r0)
300019b4:	e24bd004 	sub	sp, fp, #4
300019b8:	e8bd8800 	pop	{fp, pc}
300019bc:	3000776c 	andcc	r7, r0, ip, ror #14
300019c0:	30007744 	andcc	r7, r0, r4, asr #14

300019c4 <timer_register>:
300019c4:	e52db004 	push	{fp}		; (str fp, [sp, #-4]!)
300019c8:	e28db000 	add	fp, sp, #0
300019cc:	e24dd014 	sub	sp, sp, #20
300019d0:	e50b0010 	str	r0, [fp, #-16]
300019d4:	e3a03000 	mov	r3, #0
300019d8:	e50b3008 	str	r3, [fp, #-8]
300019dc:	ea00000d 	b	30001a18 <timer_register+0x54>
300019e0:	e59f2050 	ldr	r2, [pc, #80]	; 30001a38 <timer_register+0x74>
300019e4:	e51b3008 	ldr	r3, [fp, #-8]
300019e8:	e7923103 	ldr	r3, [r2, r3, lsl #2]
300019ec:	e3530000 	cmp	r3, #0
300019f0:	1a000005 	bne	30001a0c <timer_register+0x48>
300019f4:	e59f103c 	ldr	r1, [pc, #60]	; 30001a38 <timer_register+0x74>
300019f8:	e51b3008 	ldr	r3, [fp, #-8]
300019fc:	e51b2010 	ldr	r2, [fp, #-16]
30001a00:	e7812103 	str	r2, [r1, r3, lsl #2]
30001a04:	e3a03000 	mov	r3, #0
30001a08:	ea000006 	b	30001a28 <timer_register+0x64>
30001a0c:	e51b3008 	ldr	r3, [fp, #-8]
30001a10:	e2833001 	add	r3, r3, #1
30001a14:	e50b3008 	str	r3, [fp, #-8]
30001a18:	e51b3008 	ldr	r3, [fp, #-8]
30001a1c:	e3530009 	cmp	r3, #9
30001a20:	daffffee 	ble	300019e0 <timer_register+0x1c>
30001a24:	e3e03000 	mvn	r3, #0
30001a28:	e1a00003 	mov	r0, r3
30001a2c:	e28bd000 	add	sp, fp, #0
30001a30:	e49db004 	pop	{fp}		; (ldr fp, [sp], #4)
30001a34:	e1a0f00e 	mov	pc, lr
30001a38:	30007744 	andcc	r7, r0, r4, asr #14

30001a3c <timer_unregister>:
30001a3c:	e92d4800 	push	{fp, lr}
30001a40:	e28db004 	add	fp, sp, #4
30001a44:	e24dd010 	sub	sp, sp, #16
30001a48:	e50b0010 	str	r0, [fp, #-16]
30001a4c:	e3a03000 	mov	r3, #0
30001a50:	e50b3008 	str	r3, [fp, #-8]
30001a54:	ea000017 	b	30001ab8 <timer_unregister+0x7c>
30001a58:	e59f2074 	ldr	r2, [pc, #116]	; 30001ad4 <timer_unregister+0x98>
30001a5c:	e51b3008 	ldr	r3, [fp, #-8]
30001a60:	e7923103 	ldr	r3, [r2, r3, lsl #2]
30001a64:	e3530000 	cmp	r3, #0
30001a68:	0a00000f 	beq	30001aac <timer_unregister+0x70>
30001a6c:	e59f2060 	ldr	r2, [pc, #96]	; 30001ad4 <timer_unregister+0x98>
30001a70:	e51b3008 	ldr	r3, [fp, #-8]
30001a74:	e7923103 	ldr	r3, [r2, r3, lsl #2]
30001a78:	e5933000 	ldr	r3, [r3]
30001a7c:	e51b1010 	ldr	r1, [fp, #-16]
30001a80:	e1a00003 	mov	r0, r3
30001a84:	eb0000e0 	bl	30001e0c <strcmp>
30001a88:	e1a03000 	mov	r3, r0
30001a8c:	e3530000 	cmp	r3, #0
30001a90:	0a000005 	beq	30001aac <timer_unregister+0x70>
30001a94:	e59f2038 	ldr	r2, [pc, #56]	; 30001ad4 <timer_unregister+0x98>
30001a98:	e51b3008 	ldr	r3, [fp, #-8]
30001a9c:	e3a01000 	mov	r1, #0
30001aa0:	e7821103 	str	r1, [r2, r3, lsl #2]
30001aa4:	e3a03000 	mov	r3, #0
30001aa8:	ea000006 	b	30001ac8 <timer_unregister+0x8c>
30001aac:	e51b3008 	ldr	r3, [fp, #-8]
30001ab0:	e2833001 	add	r3, r3, #1
30001ab4:	e50b3008 	str	r3, [fp, #-8]
30001ab8:	e51b3008 	ldr	r3, [fp, #-8]
30001abc:	e3530009 	cmp	r3, #9
30001ac0:	daffffe4 	ble	30001a58 <timer_unregister+0x1c>
30001ac4:	e3e03000 	mvn	r3, #0
30001ac8:	e1a00003 	mov	r0, r3
30001acc:	e24bd004 	sub	sp, fp, #4
30001ad0:	e8bd8800 	pop	{fp, pc}
30001ad4:	30007744 	andcc	r7, r0, r4, asr #14

30001ad8 <udelay>:
30001ad8:	e52db004 	push	{fp}		; (str fp, [sp, #-4]!)
30001adc:	e28db000 	add	fp, sp, #0
30001ae0:	e24dd01c 	sub	sp, sp, #28
30001ae4:	e50b0018 	str	r0, [fp, #-24]	; 0xffffffe8
30001ae8:	e59f30a0 	ldr	r3, [pc, #160]	; 30001b90 <udelay+0xb8>
30001aec:	e5933000 	ldr	r3, [r3]
30001af0:	e50b3008 	str	r3, [fp, #-8]
30001af4:	e3a03000 	mov	r3, #0
30001af8:	e50b3014 	str	r3, [fp, #-20]	; 0xffffffec
30001afc:	e51b3018 	ldr	r3, [fp, #-24]	; 0xffffffe8
30001b00:	e50b300c 	str	r3, [fp, #-12]
30001b04:	e3a03000 	mov	r3, #0
30001b08:	e50b3010 	str	r3, [fp, #-16]
30001b0c:	ea000017 	b	30001b70 <udelay+0x98>
30001b10:	e59f3078 	ldr	r3, [pc, #120]	; 30001b90 <udelay+0xb8>
30001b14:	e5933000 	ldr	r3, [r3]
30001b18:	e50b3014 	str	r3, [fp, #-20]	; 0xffffffec
30001b1c:	e51b2014 	ldr	r2, [fp, #-20]	; 0xffffffec
30001b20:	e51b3008 	ldr	r3, [fp, #-8]
30001b24:	e1520003 	cmp	r2, r3
30001b28:	da000006 	ble	30001b48 <udelay+0x70>
30001b2c:	e51b3014 	ldr	r3, [fp, #-20]	; 0xffffffec
30001b30:	e2633d4e 	rsb	r3, r3, #4992	; 0x1380
30001b34:	e2833008 	add	r3, r3, #8
30001b38:	e51b2008 	ldr	r2, [fp, #-8]
30001b3c:	e0823003 	add	r3, r2, r3
30001b40:	e50b3010 	str	r3, [fp, #-16]
30001b44:	ea000003 	b	30001b58 <udelay+0x80>
30001b48:	e51b2008 	ldr	r2, [fp, #-8]
30001b4c:	e51b3014 	ldr	r3, [fp, #-20]	; 0xffffffec
30001b50:	e0423003 	sub	r3, r2, r3
30001b54:	e50b3010 	str	r3, [fp, #-16]
30001b58:	e51b200c 	ldr	r2, [fp, #-12]
30001b5c:	e51b3010 	ldr	r3, [fp, #-16]
30001b60:	e0423003 	sub	r3, r2, r3
30001b64:	e50b300c 	str	r3, [fp, #-12]
30001b68:	e51b3014 	ldr	r3, [fp, #-20]	; 0xffffffec
30001b6c:	e50b3008 	str	r3, [fp, #-8]
30001b70:	e51b300c 	ldr	r3, [fp, #-12]
30001b74:	e3530000 	cmp	r3, #0
30001b78:	caffffe4 	bgt	30001b10 <udelay+0x38>
30001b7c:	e1a00000 	nop			; (mov r0, r0)
30001b80:	e1a00000 	nop			; (mov r0, r0)
30001b84:	e28bd000 	add	sp, fp, #0
30001b88:	e49db004 	pop	{fp}		; (ldr fp, [sp], #4)
30001b8c:	e1a0f00e 	mov	pc, lr
30001b90:	51000040 	tstpl	r0, r0, asr #32

30001b94 <delay>:
30001b94:	e92d4800 	push	{fp, lr}
30001b98:	e28db004 	add	fp, sp, #4
30001b9c:	e24dd008 	sub	sp, sp, #8
30001ba0:	e50b0008 	str	r0, [fp, #-8]
30001ba4:	e51b2008 	ldr	r2, [fp, #-8]
30001ba8:	e1a03002 	mov	r3, r2
30001bac:	e1a03283 	lsl	r3, r3, #5
30001bb0:	e0433002 	sub	r3, r3, r2
30001bb4:	e1a03103 	lsl	r3, r3, #2
30001bb8:	e0833002 	add	r3, r3, r2
30001bbc:	e1a03183 	lsl	r3, r3, #3
30001bc0:	e1a00003 	mov	r0, r3
30001bc4:	ebffffc3 	bl	30001ad8 <udelay>
30001bc8:	e1a00000 	nop			; (mov r0, r0)
30001bcc:	e24bd004 	sub	sp, fp, #4
30001bd0:	e8bd8800 	pop	{fp, pc}

30001bd4 <delay_test>:
30001bd4:	e92d4800 	push	{fp, lr}
30001bd8:	e28db004 	add	fp, sp, #4
30001bdc:	e59f305c 	ldr	r3, [pc, #92]	; 30001c40 <delay_test+0x6c>
30001be0:	e5933000 	ldr	r3, [r3]
30001be4:	e59f2054 	ldr	r2, [pc, #84]	; 30001c40 <delay_test+0x6c>
30001be8:	e2033a03 	and	r3, r3, #12288	; 0x3000
30001bec:	e5823000 	str	r3, [r2]
30001bf0:	e59f3048 	ldr	r3, [pc, #72]	; 30001c40 <delay_test+0x6c>
30001bf4:	e5933000 	ldr	r3, [r3]
30001bf8:	e59f2040 	ldr	r2, [pc, #64]	; 30001c40 <delay_test+0x6c>
30001bfc:	e3833a01 	orr	r3, r3, #4096	; 0x1000
30001c00:	e5823000 	str	r3, [r2]
30001c04:	e3a0000a 	mov	r0, #10
30001c08:	ebffffb2 	bl	30001ad8 <udelay>
30001c0c:	e59f3030 	ldr	r3, [pc, #48]	; 30001c44 <delay_test+0x70>
30001c10:	e5933000 	ldr	r3, [r3]
30001c14:	e59f2028 	ldr	r2, [pc, #40]	; 30001c44 <delay_test+0x70>
30001c18:	e3833040 	orr	r3, r3, #64	; 0x40
30001c1c:	e5823000 	str	r3, [r2]
30001c20:	e3a0000a 	mov	r0, #10
30001c24:	ebffffab 	bl	30001ad8 <udelay>
30001c28:	e59f3014 	ldr	r3, [pc, #20]	; 30001c44 <delay_test+0x70>
30001c2c:	e5933000 	ldr	r3, [r3]
30001c30:	e59f200c 	ldr	r2, [pc, #12]	; 30001c44 <delay_test+0x70>
30001c34:	e3c33040 	bic	r3, r3, #64	; 0x40
30001c38:	e5823000 	str	r3, [r2]
30001c3c:	eafffff0 	b	30001c04 <delay_test+0x30>
30001c40:	56000060 	strpl	r0, [r0], -r0, rrx
30001c44:	56000064 	strpl	r0, [r0], -r4, rrx

30001c48 <strlen>:
30001c48:	e52db004 	push	{fp}		; (str fp, [sp, #-4]!)
30001c4c:	e28db000 	add	fp, sp, #0
30001c50:	e24dd014 	sub	sp, sp, #20
30001c54:	e50b0010 	str	r0, [fp, #-16]
30001c58:	e51b3010 	ldr	r3, [fp, #-16]
30001c5c:	e50b3008 	str	r3, [fp, #-8]
30001c60:	ea000002 	b	30001c70 <strlen+0x28>
30001c64:	e51b3008 	ldr	r3, [fp, #-8]
30001c68:	e2833001 	add	r3, r3, #1
30001c6c:	e50b3008 	str	r3, [fp, #-8]
30001c70:	e51b3008 	ldr	r3, [fp, #-8]
30001c74:	e5d33000 	ldrb	r3, [r3]
30001c78:	e3530000 	cmp	r3, #0
30001c7c:	1afffff8 	bne	30001c64 <strlen+0x1c>
30001c80:	e51b2008 	ldr	r2, [fp, #-8]
30001c84:	e51b3010 	ldr	r3, [fp, #-16]
30001c88:	e0423003 	sub	r3, r2, r3
30001c8c:	e1a00003 	mov	r0, r3
30001c90:	e28bd000 	add	sp, fp, #0
30001c94:	e49db004 	pop	{fp}		; (ldr fp, [sp], #4)
30001c98:	e1a0f00e 	mov	pc, lr

30001c9c <get_uint>:
30001c9c:	e92d4800 	push	{fp, lr}
30001ca0:	e28db004 	add	fp, sp, #4
30001ca4:	e24dd018 	sub	sp, sp, #24
30001ca8:	e3a03000 	mov	r3, #0
30001cac:	e50b301c 	str	r3, [fp, #-28]	; 0xffffffe4
30001cb0:	e24b3018 	sub	r3, fp, #24
30001cb4:	e3a02000 	mov	r2, #0
30001cb8:	e5832000 	str	r2, [r3]
30001cbc:	e1c320b4 	strh	r2, [r3, #4]
30001cc0:	e3a03000 	mov	r3, #0
30001cc4:	e54b3005 	strb	r3, [fp, #-5]
30001cc8:	e3a03000 	mov	r3, #0
30001ccc:	e50b300c 	str	r3, [fp, #-12]
30001cd0:	ebfffcf8 	bl	300010b8 <getchar>
30001cd4:	e1a03000 	mov	r3, r0
30001cd8:	e54b3011 	strb	r3, [fp, #-17]	; 0xffffffef
30001cdc:	e55b3011 	ldrb	r3, [fp, #-17]	; 0xffffffef
30001ce0:	e1a00003 	mov	r0, r3
30001ce4:	ebfffcdd 	bl	30001060 <putchar>
30001ce8:	e55b3011 	ldrb	r3, [fp, #-17]	; 0xffffffef
30001cec:	e353000d 	cmp	r3, #13
30001cf0:	0a00000a 	beq	30001d20 <get_uint+0x84>
30001cf4:	e55b3011 	ldrb	r3, [fp, #-17]	; 0xffffffef
30001cf8:	e353000a 	cmp	r3, #10
30001cfc:	0a000007 	beq	30001d20 <get_uint+0x84>
30001d00:	e55b3005 	ldrb	r3, [fp, #-5]
30001d04:	e2832001 	add	r2, r3, #1
30001d08:	e54b2005 	strb	r2, [fp, #-5]
30001d0c:	e2433004 	sub	r3, r3, #4
30001d10:	e083300b 	add	r3, r3, fp
30001d14:	e55b2011 	ldrb	r2, [fp, #-17]	; 0xffffffef
30001d18:	e5432018 	strb	r2, [r3, #-24]	; 0xffffffe8
30001d1c:	eaffffeb 	b	30001cd0 <get_uint+0x34>
30001d20:	e3a03000 	mov	r3, #0
30001d24:	e50b3010 	str	r3, [fp, #-16]
30001d28:	ea00002f 	b	30001dec <get_uint+0x150>
30001d2c:	e55b3005 	ldrb	r3, [fp, #-5]
30001d30:	e2433004 	sub	r3, r3, #4
30001d34:	e083300b 	add	r3, r3, fp
30001d38:	e5533018 	ldrb	r3, [r3, #-24]	; 0xffffffe8
30001d3c:	e54b3012 	strb	r3, [fp, #-18]	; 0xffffffee
30001d40:	e55b3012 	ldrb	r3, [fp, #-18]	; 0xffffffee
30001d44:	e353002f 	cmp	r3, #47	; 0x2f
30001d48:	9a00000c 	bls	30001d80 <get_uint+0xe4>
30001d4c:	e55b3012 	ldrb	r3, [fp, #-18]	; 0xffffffee
30001d50:	e3530039 	cmp	r3, #57	; 0x39
30001d54:	8a000009 	bhi	30001d80 <get_uint+0xe4>
30001d58:	e55b3012 	ldrb	r3, [fp, #-18]	; 0xffffffee
30001d5c:	e2432030 	sub	r2, r3, #48	; 0x30
30001d60:	e55b3005 	ldrb	r3, [fp, #-5]
30001d64:	e1a03103 	lsl	r3, r3, #2
30001d68:	e1a03312 	lsl	r3, r2, r3
30001d6c:	e1a02003 	mov	r2, r3
30001d70:	e51b300c 	ldr	r3, [fp, #-12]
30001d74:	e1833002 	orr	r3, r3, r2
30001d78:	e50b300c 	str	r3, [fp, #-12]
30001d7c:	ea000017 	b	30001de0 <get_uint+0x144>
30001d80:	e55b3012 	ldrb	r3, [fp, #-18]	; 0xffffffee
30001d84:	e3530040 	cmp	r3, #64	; 0x40
30001d88:	9a000002 	bls	30001d98 <get_uint+0xfc>
30001d8c:	e55b3012 	ldrb	r3, [fp, #-18]	; 0xffffffee
30001d90:	e3530046 	cmp	r3, #70	; 0x46
30001d94:	9a000005 	bls	30001db0 <get_uint+0x114>
30001d98:	e55b3012 	ldrb	r3, [fp, #-18]	; 0xffffffee
30001d9c:	e3530060 	cmp	r3, #96	; 0x60
30001da0:	9a00000e 	bls	30001de0 <get_uint+0x144>
30001da4:	e55b3012 	ldrb	r3, [fp, #-18]	; 0xffffffee
30001da8:	e3530066 	cmp	r3, #102	; 0x66
30001dac:	8a00000b 	bhi	30001de0 <get_uint+0x144>
30001db0:	e55b3012 	ldrb	r3, [fp, #-18]	; 0xffffffee
30001db4:	e3c33020 	bic	r3, r3, #32
30001db8:	e54b3012 	strb	r3, [fp, #-18]	; 0xffffffee
30001dbc:	e55b3012 	ldrb	r3, [fp, #-18]	; 0xffffffee
30001dc0:	e2432037 	sub	r2, r3, #55	; 0x37
30001dc4:	e55b3005 	ldrb	r3, [fp, #-5]
30001dc8:	e1a03103 	lsl	r3, r3, #2
30001dcc:	e1a03312 	lsl	r3, r2, r3
30001dd0:	e1a02003 	mov	r2, r3
30001dd4:	e51b300c 	ldr	r3, [fp, #-12]
30001dd8:	e1833002 	orr	r3, r3, r2
30001ddc:	e50b300c 	str	r3, [fp, #-12]
30001de0:	e51b3010 	ldr	r3, [fp, #-16]
30001de4:	e2833001 	add	r3, r3, #1
30001de8:	e50b3010 	str	r3, [fp, #-16]
30001dec:	e55b3005 	ldrb	r3, [fp, #-5]
30001df0:	e51b2010 	ldr	r2, [fp, #-16]
30001df4:	e1520003 	cmp	r2, r3
30001df8:	baffffcb 	blt	30001d2c <get_uint+0x90>
30001dfc:	e51b300c 	ldr	r3, [fp, #-12]
30001e00:	e1a00003 	mov	r0, r3
30001e04:	e24bd004 	sub	sp, fp, #4
30001e08:	e8bd8800 	pop	{fp, pc}

30001e0c <strcmp>:
30001e0c:	e92d0810 	push	{r4, fp}
30001e10:	e28db004 	add	fp, sp, #4
30001e14:	e24dd008 	sub	sp, sp, #8
30001e18:	e50b0008 	str	r0, [fp, #-8]
30001e1c:	e50b100c 	str	r1, [fp, #-12]
30001e20:	e51b3008 	ldr	r3, [fp, #-8]
30001e24:	e5d32000 	ldrb	r2, [r3]
30001e28:	e51b300c 	ldr	r3, [fp, #-12]
30001e2c:	e2831001 	add	r1, r3, #1
30001e30:	e50b100c 	str	r1, [fp, #-12]
30001e34:	e5d33000 	ldrb	r3, [r3]
30001e38:	e0423003 	sub	r3, r2, r3
30001e3c:	e20330ff 	and	r3, r3, #255	; 0xff
30001e40:	e1a03c03 	lsl	r3, r3, #24
30001e44:	e1a04c43 	asr	r4, r3, #24
30001e48:	e3540000 	cmp	r4, #0
30001e4c:	1a000006 	bne	30001e6c <strcmp+0x60>
30001e50:	e51b3008 	ldr	r3, [fp, #-8]
30001e54:	e2832001 	add	r2, r3, #1
30001e58:	e50b2008 	str	r2, [fp, #-8]
30001e5c:	e5d33000 	ldrb	r3, [r3]
30001e60:	e3530000 	cmp	r3, #0
30001e64:	0a000000 	beq	30001e6c <strcmp+0x60>
30001e68:	eaffffec 	b	30001e20 <strcmp+0x14>
30001e6c:	e1a03004 	mov	r3, r4
30001e70:	e1a00003 	mov	r0, r3
30001e74:	e24bd004 	sub	sp, fp, #4
30001e78:	e8bd0810 	pop	{r4, fp}
30001e7c:	e1a0f00e 	mov	pc, lr

30001e80 <fb_draw_char>:
30001e80:	e92d4800 	push	{fp, lr}
30001e84:	e28db004 	add	fp, sp, #4
30001e88:	e24dd028 	sub	sp, sp, #40	; 0x28
30001e8c:	e50b0020 	str	r0, [fp, #-32]	; 0xffffffe0
30001e90:	e50b1024 	str	r1, [fp, #-36]	; 0xffffffdc
30001e94:	e50b302c 	str	r3, [fp, #-44]	; 0xffffffd4
30001e98:	e1a03002 	mov	r3, r2
30001e9c:	e54b3025 	strb	r3, [fp, #-37]	; 0xffffffdb
30001ea0:	e24b2024 	sub	r2, fp, #36	; 0x24
30001ea4:	e24b3020 	sub	r3, fp, #32
30001ea8:	e1a01002 	mov	r1, r2
30001eac:	e1a00003 	mov	r0, r3
30001eb0:	eb0000ab 	bl	30002164 <fb_limit_xy>
30001eb4:	e55b3025 	ldrb	r3, [fp, #-37]	; 0xffffffdb
30001eb8:	e1a03203 	lsl	r3, r3, #4
30001ebc:	e59f2108 	ldr	r2, [pc, #264]	; 30001fcc <fb_draw_char+0x14c>
30001ec0:	e0833002 	add	r3, r3, r2
30001ec4:	e50b3008 	str	r3, [fp, #-8]
30001ec8:	e3a03000 	mov	r3, #0
30001ecc:	e50b300c 	str	r3, [fp, #-12]
30001ed0:	e3a03000 	mov	r3, #0
30001ed4:	e50b3010 	str	r3, [fp, #-16]
30001ed8:	e3a03000 	mov	r3, #0
30001edc:	e50b3014 	str	r3, [fp, #-20]	; 0xffffffec
30001ee0:	ea000032 	b	30001fb0 <fb_draw_char+0x130>
30001ee4:	e3a03000 	mov	r3, #0
30001ee8:	e50b3018 	str	r3, [fp, #-24]	; 0xffffffe8
30001eec:	ea000021 	b	30001f78 <fb_draw_char+0xf8>
30001ef0:	e51b3008 	ldr	r3, [fp, #-8]
30001ef4:	e5d33000 	ldrb	r3, [r3]
30001ef8:	e1a02003 	mov	r2, r3
30001efc:	e51b3018 	ldr	r3, [fp, #-24]	; 0xffffffe8
30001f00:	e2633007 	rsb	r3, r3, #7
30001f04:	e1a03352 	asr	r3, r2, r3
30001f08:	e2033001 	and	r3, r3, #1
30001f0c:	e3530000 	cmp	r3, #0
30001f10:	0a000009 	beq	30001f3c <fb_draw_char+0xbc>
30001f14:	e51b2020 	ldr	r2, [fp, #-32]	; 0xffffffe0
30001f18:	e51b300c 	ldr	r3, [fp, #-12]
30001f1c:	e0820003 	add	r0, r2, r3
30001f20:	e51b2024 	ldr	r2, [fp, #-36]	; 0xffffffdc
30001f24:	e51b3010 	ldr	r3, [fp, #-16]
30001f28:	e0823003 	add	r3, r2, r3
30001f2c:	e51b202c 	ldr	r2, [fp, #-44]	; 0xffffffd4
30001f30:	e1a01003 	mov	r1, r3
30001f34:	eb00005e 	bl	300020b4 <fb_draw_pixel>
30001f38:	ea000008 	b	30001f60 <fb_draw_char+0xe0>
30001f3c:	e51b2020 	ldr	r2, [fp, #-32]	; 0xffffffe0
30001f40:	e51b300c 	ldr	r3, [fp, #-12]
30001f44:	e0820003 	add	r0, r2, r3
30001f48:	e51b2024 	ldr	r2, [fp, #-36]	; 0xffffffdc
30001f4c:	e51b3010 	ldr	r3, [fp, #-16]
30001f50:	e0823003 	add	r3, r2, r3
30001f54:	e3a02000 	mov	r2, #0
30001f58:	e1a01003 	mov	r1, r3
30001f5c:	eb000054 	bl	300020b4 <fb_draw_pixel>
30001f60:	e51b300c 	ldr	r3, [fp, #-12]
30001f64:	e2833001 	add	r3, r3, #1
30001f68:	e50b300c 	str	r3, [fp, #-12]
30001f6c:	e51b3018 	ldr	r3, [fp, #-24]	; 0xffffffe8
30001f70:	e2833001 	add	r3, r3, #1
30001f74:	e50b3018 	str	r3, [fp, #-24]	; 0xffffffe8
30001f78:	e51b3018 	ldr	r3, [fp, #-24]	; 0xffffffe8
30001f7c:	e3530007 	cmp	r3, #7
30001f80:	daffffda 	ble	30001ef0 <fb_draw_char+0x70>
30001f84:	e3a03000 	mov	r3, #0
30001f88:	e50b300c 	str	r3, [fp, #-12]
30001f8c:	e51b3010 	ldr	r3, [fp, #-16]
30001f90:	e2833001 	add	r3, r3, #1
30001f94:	e50b3010 	str	r3, [fp, #-16]
30001f98:	e51b3008 	ldr	r3, [fp, #-8]
30001f9c:	e2833001 	add	r3, r3, #1
30001fa0:	e50b3008 	str	r3, [fp, #-8]
30001fa4:	e51b3014 	ldr	r3, [fp, #-20]	; 0xffffffec
30001fa8:	e2833001 	add	r3, r3, #1
30001fac:	e50b3014 	str	r3, [fp, #-20]	; 0xffffffec
30001fb0:	e51b3014 	ldr	r3, [fp, #-20]	; 0xffffffec
30001fb4:	e353000f 	cmp	r3, #15
30001fb8:	daffffc9 	ble	30001ee4 <fb_draw_char+0x64>
30001fbc:	e1a00000 	nop			; (mov r0, r0)
30001fc0:	e1a00000 	nop			; (mov r0, r0)
30001fc4:	e24bd004 	sub	sp, fp, #4
30001fc8:	e8bd8800 	pop	{fp, pc}
30001fcc:	30006398 	mulcc	r0, r8, r3

30001fd0 <fb_draw_str>:
30001fd0:	e92d4800 	push	{fp, lr}
30001fd4:	e28db004 	add	fp, sp, #4
30001fd8:	e24dd018 	sub	sp, sp, #24
30001fdc:	e50b0010 	str	r0, [fp, #-16]
30001fe0:	e50b1014 	str	r1, [fp, #-20]	; 0xffffffec
30001fe4:	e50b2018 	str	r2, [fp, #-24]	; 0xffffffe8
30001fe8:	e50b301c 	str	r3, [fp, #-28]	; 0xffffffe4
30001fec:	eb000430 	bl	300030b4 <lcd_get_params>
30001ff0:	e50b0008 	str	r0, [fp, #-8]
30001ff4:	e51b3010 	ldr	r3, [fp, #-16]
30001ff8:	e50b300c 	str	r3, [fp, #-12]
30001ffc:	ea000024 	b	30002094 <fb_draw_str+0xc4>
30002000:	e51b3018 	ldr	r3, [fp, #-24]	; 0xffffffe8
30002004:	e5d33000 	ldrb	r3, [r3]
30002008:	e353000d 	cmp	r3, #13
3000200c:	1a000002 	bne	3000201c <fb_draw_str+0x4c>
30002010:	e51b300c 	ldr	r3, [fp, #-12]
30002014:	e50b3010 	str	r3, [fp, #-16]
30002018:	ea00001a 	b	30002088 <fb_draw_str+0xb8>
3000201c:	e51b3018 	ldr	r3, [fp, #-24]	; 0xffffffe8
30002020:	e5d33000 	ldrb	r3, [r3]
30002024:	e353000a 	cmp	r3, #10
30002028:	1a000003 	bne	3000203c <fb_draw_str+0x6c>
3000202c:	e51b3014 	ldr	r3, [fp, #-20]	; 0xffffffec
30002030:	e2833010 	add	r3, r3, #16
30002034:	e50b3014 	str	r3, [fp, #-20]	; 0xffffffec
30002038:	ea000012 	b	30002088 <fb_draw_str+0xb8>
3000203c:	e51b3018 	ldr	r3, [fp, #-24]	; 0xffffffe8
30002040:	e5d32000 	ldrb	r2, [r3]
30002044:	e51b301c 	ldr	r3, [fp, #-28]	; 0xffffffe4
30002048:	e51b1014 	ldr	r1, [fp, #-20]	; 0xffffffec
3000204c:	e51b0010 	ldr	r0, [fp, #-16]
30002050:	ebffff8a 	bl	30001e80 <fb_draw_char>
30002054:	e51b3010 	ldr	r3, [fp, #-16]
30002058:	e2833008 	add	r3, r3, #8
3000205c:	e50b3010 	str	r3, [fp, #-16]
30002060:	e51b3008 	ldr	r3, [fp, #-8]
30002064:	e5933024 	ldr	r3, [r3, #36]	; 0x24
30002068:	e51b2010 	ldr	r2, [fp, #-16]
3000206c:	e1520003 	cmp	r2, r3
30002070:	3a000004 	bcc	30002088 <fb_draw_str+0xb8>
30002074:	e51b300c 	ldr	r3, [fp, #-12]
30002078:	e50b3010 	str	r3, [fp, #-16]
3000207c:	e51b3014 	ldr	r3, [fp, #-20]	; 0xffffffec
30002080:	e2833010 	add	r3, r3, #16
30002084:	e50b3014 	str	r3, [fp, #-20]	; 0xffffffec
30002088:	e51b3018 	ldr	r3, [fp, #-24]	; 0xffffffe8
3000208c:	e2833001 	add	r3, r3, #1
30002090:	e50b3018 	str	r3, [fp, #-24]	; 0xffffffe8
30002094:	e51b3018 	ldr	r3, [fp, #-24]	; 0xffffffe8
30002098:	e5d33000 	ldrb	r3, [r3]
3000209c:	e3530000 	cmp	r3, #0
300020a0:	1affffd6 	bne	30002000 <fb_draw_str+0x30>
300020a4:	e1a00000 	nop			; (mov r0, r0)
300020a8:	e1a00000 	nop			; (mov r0, r0)
300020ac:	e24bd004 	sub	sp, fp, #4
300020b0:	e8bd8800 	pop	{fp, pc}

300020b4 <fb_draw_pixel>:
300020b4:	e92d4800 	push	{fp, lr}
300020b8:	e28db004 	add	fp, sp, #4
300020bc:	e24dd018 	sub	sp, sp, #24
300020c0:	e50b0010 	str	r0, [fp, #-16]
300020c4:	e50b1014 	str	r1, [fp, #-20]	; 0xffffffec
300020c8:	e50b2018 	str	r2, [fp, #-24]	; 0xffffffe8
300020cc:	eb0003f8 	bl	300030b4 <lcd_get_params>
300020d0:	e50b0008 	str	r0, [fp, #-8]
300020d4:	e51b3008 	ldr	r3, [fp, #-8]
300020d8:	e3530000 	cmp	r3, #0
300020dc:	0a00001d 	beq	30002158 <fb_draw_pixel+0xa4>
300020e0:	e24b2014 	sub	r2, fp, #20
300020e4:	e24b3010 	sub	r3, fp, #16
300020e8:	e1a01002 	mov	r1, r2
300020ec:	e1a00003 	mov	r0, r3
300020f0:	eb00001b 	bl	30002164 <fb_limit_xy>
300020f4:	e51b3008 	ldr	r3, [fp, #-8]
300020f8:	e5932030 	ldr	r2, [r3, #48]	; 0x30
300020fc:	e51b3008 	ldr	r3, [fp, #-8]
30002100:	e5933024 	ldr	r3, [r3, #36]	; 0x24
30002104:	e51b1008 	ldr	r1, [fp, #-8]
30002108:	e591102c 	ldr	r1, [r1, #44]	; 0x2c
3000210c:	e0030391 	mul	r3, r1, r3
30002110:	e51b1014 	ldr	r1, [fp, #-20]	; 0xffffffec
30002114:	e0030391 	mul	r3, r1, r3
30002118:	e1a031a3 	lsr	r3, r3, #3
3000211c:	e0822003 	add	r2, r2, r3
30002120:	e51b3008 	ldr	r3, [fp, #-8]
30002124:	e593302c 	ldr	r3, [r3, #44]	; 0x2c
30002128:	e1a01003 	mov	r1, r3
3000212c:	e51b3010 	ldr	r3, [fp, #-16]
30002130:	e0030391 	mul	r3, r1, r3
30002134:	e1a031a3 	lsr	r3, r3, #3
30002138:	e0823003 	add	r3, r2, r3
3000213c:	e50b300c 	str	r3, [fp, #-12]
30002140:	e51b3018 	ldr	r3, [fp, #-24]	; 0xffffffe8
30002144:	e1a03803 	lsl	r3, r3, #16
30002148:	e1a02823 	lsr	r2, r3, #16
3000214c:	e51b300c 	ldr	r3, [fp, #-12]
30002150:	e1c320b0 	strh	r2, [r3]
30002154:	ea000000 	b	3000215c <fb_draw_pixel+0xa8>
30002158:	e1a00000 	nop			; (mov r0, r0)
3000215c:	e24bd004 	sub	sp, fp, #4
30002160:	e8bd8800 	pop	{fp, pc}

30002164 <fb_limit_xy>:
30002164:	e92d4800 	push	{fp, lr}
30002168:	e28db004 	add	fp, sp, #4
3000216c:	e24dd010 	sub	sp, sp, #16
30002170:	e50b0010 	str	r0, [fp, #-16]
30002174:	e50b1014 	str	r1, [fp, #-20]	; 0xffffffec
30002178:	eb0003cd 	bl	300030b4 <lcd_get_params>
3000217c:	e50b0008 	str	r0, [fp, #-8]
30002180:	e51b3008 	ldr	r3, [fp, #-8]
30002184:	e5932024 	ldr	r2, [r3, #36]	; 0x24
30002188:	e51b3010 	ldr	r3, [fp, #-16]
3000218c:	e5933000 	ldr	r3, [r3]
30002190:	e1520003 	cmp	r2, r3
30002194:	8a000004 	bhi	300021ac <fb_limit_xy+0x48>
30002198:	e51b3008 	ldr	r3, [fp, #-8]
3000219c:	e5933024 	ldr	r3, [r3, #36]	; 0x24
300021a0:	e2432001 	sub	r2, r3, #1
300021a4:	e51b3010 	ldr	r3, [fp, #-16]
300021a8:	e5832000 	str	r2, [r3]
300021ac:	e51b3008 	ldr	r3, [fp, #-8]
300021b0:	e5932028 	ldr	r2, [r3, #40]	; 0x28
300021b4:	e51b3014 	ldr	r3, [fp, #-20]	; 0xffffffec
300021b8:	e5933000 	ldr	r3, [r3]
300021bc:	e1520003 	cmp	r2, r3
300021c0:	8a000004 	bhi	300021d8 <fb_limit_xy+0x74>
300021c4:	e51b3008 	ldr	r3, [fp, #-8]
300021c8:	e5933028 	ldr	r3, [r3, #40]	; 0x28
300021cc:	e2432001 	sub	r2, r3, #1
300021d0:	e51b3014 	ldr	r3, [fp, #-20]	; 0xffffffec
300021d4:	e5832000 	str	r2, [r3]
300021d8:	e1a00000 	nop			; (mov r0, r0)
300021dc:	e24bd004 	sub	sp, fp, #4
300021e0:	e8bd8800 	pop	{fp, pc}

300021e4 <fb_clear>:
300021e4:	e92d4800 	push	{fp, lr}
300021e8:	e28db004 	add	fp, sp, #4
300021ec:	e24dd018 	sub	sp, sp, #24
300021f0:	e50b0018 	str	r0, [fp, #-24]	; 0xffffffe8
300021f4:	eb0003ae 	bl	300030b4 <lcd_get_params>
300021f8:	e50b0014 	str	r0, [fp, #-20]	; 0xffffffec
300021fc:	e51b3014 	ldr	r3, [fp, #-20]	; 0xffffffec
30002200:	e593302c 	ldr	r3, [r3, #44]	; 0x2c
30002204:	e3530010 	cmp	r3, #16
30002208:	1a00001f 	bne	3000228c <fb_clear+0xa8>
3000220c:	e51b3014 	ldr	r3, [fp, #-20]	; 0xffffffec
30002210:	e5933030 	ldr	r3, [r3, #48]	; 0x30
30002214:	e50b3008 	str	r3, [fp, #-8]
30002218:	e3a03000 	mov	r3, #0
3000221c:	e50b300c 	str	r3, [fp, #-12]
30002220:	ea000014 	b	30002278 <fb_clear+0x94>
30002224:	e3a03000 	mov	r3, #0
30002228:	e50b3010 	str	r3, [fp, #-16]
3000222c:	ea000009 	b	30002258 <fb_clear+0x74>
30002230:	e51b3008 	ldr	r3, [fp, #-8]
30002234:	e2832002 	add	r2, r3, #2
30002238:	e50b2008 	str	r2, [fp, #-8]
3000223c:	e51b2018 	ldr	r2, [fp, #-24]	; 0xffffffe8
30002240:	e1a02802 	lsl	r2, r2, #16
30002244:	e1a02822 	lsr	r2, r2, #16
30002248:	e1c320b0 	strh	r2, [r3]
3000224c:	e51b3010 	ldr	r3, [fp, #-16]
30002250:	e2833001 	add	r3, r3, #1
30002254:	e50b3010 	str	r3, [fp, #-16]
30002258:	e51b3014 	ldr	r3, [fp, #-20]	; 0xffffffec
3000225c:	e5932028 	ldr	r2, [r3, #40]	; 0x28
30002260:	e51b3010 	ldr	r3, [fp, #-16]
30002264:	e1520003 	cmp	r2, r3
30002268:	8afffff0 	bhi	30002230 <fb_clear+0x4c>
3000226c:	e51b300c 	ldr	r3, [fp, #-12]
30002270:	e2833001 	add	r3, r3, #1
30002274:	e50b300c 	str	r3, [fp, #-12]
30002278:	e51b3014 	ldr	r3, [fp, #-20]	; 0xffffffec
3000227c:	e5932024 	ldr	r2, [r3, #36]	; 0x24
30002280:	e51b300c 	ldr	r3, [fp, #-12]
30002284:	e1520003 	cmp	r2, r3
30002288:	8affffe5 	bhi	30002224 <fb_clear+0x40>
3000228c:	e1a00000 	nop			; (mov r0, r0)
30002290:	e24bd004 	sub	sp, fp, #4
30002294:	e8bd8800 	pop	{fp, pc}

30002298 <fb_draw_circle_8>:
30002298:	e92d4800 	push	{fp, lr}
3000229c:	e28db004 	add	fp, sp, #4
300022a0:	e24dd010 	sub	sp, sp, #16
300022a4:	e50b0008 	str	r0, [fp, #-8]
300022a8:	e50b100c 	str	r1, [fp, #-12]
300022ac:	e50b2010 	str	r2, [fp, #-16]
300022b0:	e50b3014 	str	r3, [fp, #-20]	; 0xffffffec
300022b4:	e51b2008 	ldr	r2, [fp, #-8]
300022b8:	e51b3010 	ldr	r3, [fp, #-16]
300022bc:	e0823003 	add	r3, r2, r3
300022c0:	e1a00003 	mov	r0, r3
300022c4:	e51b200c 	ldr	r2, [fp, #-12]
300022c8:	e51b3014 	ldr	r3, [fp, #-20]	; 0xffffffec
300022cc:	e0823003 	add	r3, r2, r3
300022d0:	e59b2004 	ldr	r2, [fp, #4]
300022d4:	e1a01003 	mov	r1, r3
300022d8:	ebffff75 	bl	300020b4 <fb_draw_pixel>
300022dc:	e51b2008 	ldr	r2, [fp, #-8]
300022e0:	e51b3010 	ldr	r3, [fp, #-16]
300022e4:	e0423003 	sub	r3, r2, r3
300022e8:	e1a00003 	mov	r0, r3
300022ec:	e51b200c 	ldr	r2, [fp, #-12]
300022f0:	e51b3014 	ldr	r3, [fp, #-20]	; 0xffffffec
300022f4:	e0823003 	add	r3, r2, r3
300022f8:	e59b2004 	ldr	r2, [fp, #4]
300022fc:	e1a01003 	mov	r1, r3
30002300:	ebffff6b 	bl	300020b4 <fb_draw_pixel>
30002304:	e51b2008 	ldr	r2, [fp, #-8]
30002308:	e51b3010 	ldr	r3, [fp, #-16]
3000230c:	e0823003 	add	r3, r2, r3
30002310:	e1a00003 	mov	r0, r3
30002314:	e51b200c 	ldr	r2, [fp, #-12]
30002318:	e51b3014 	ldr	r3, [fp, #-20]	; 0xffffffec
3000231c:	e0423003 	sub	r3, r2, r3
30002320:	e59b2004 	ldr	r2, [fp, #4]
30002324:	e1a01003 	mov	r1, r3
30002328:	ebffff61 	bl	300020b4 <fb_draw_pixel>
3000232c:	e51b2008 	ldr	r2, [fp, #-8]
30002330:	e51b3010 	ldr	r3, [fp, #-16]
30002334:	e0423003 	sub	r3, r2, r3
30002338:	e1a00003 	mov	r0, r3
3000233c:	e51b200c 	ldr	r2, [fp, #-12]
30002340:	e51b3014 	ldr	r3, [fp, #-20]	; 0xffffffec
30002344:	e0423003 	sub	r3, r2, r3
30002348:	e59b2004 	ldr	r2, [fp, #4]
3000234c:	e1a01003 	mov	r1, r3
30002350:	ebffff57 	bl	300020b4 <fb_draw_pixel>
30002354:	e51b2008 	ldr	r2, [fp, #-8]
30002358:	e51b3014 	ldr	r3, [fp, #-20]	; 0xffffffec
3000235c:	e0823003 	add	r3, r2, r3
30002360:	e1a00003 	mov	r0, r3
30002364:	e51b200c 	ldr	r2, [fp, #-12]
30002368:	e51b3010 	ldr	r3, [fp, #-16]
3000236c:	e0823003 	add	r3, r2, r3
30002370:	e59b2004 	ldr	r2, [fp, #4]
30002374:	e1a01003 	mov	r1, r3
30002378:	ebffff4d 	bl	300020b4 <fb_draw_pixel>
3000237c:	e51b2008 	ldr	r2, [fp, #-8]
30002380:	e51b3014 	ldr	r3, [fp, #-20]	; 0xffffffec
30002384:	e0423003 	sub	r3, r2, r3
30002388:	e1a00003 	mov	r0, r3
3000238c:	e51b200c 	ldr	r2, [fp, #-12]
30002390:	e51b3010 	ldr	r3, [fp, #-16]
30002394:	e0823003 	add	r3, r2, r3
30002398:	e59b2004 	ldr	r2, [fp, #4]
3000239c:	e1a01003 	mov	r1, r3
300023a0:	ebffff43 	bl	300020b4 <fb_draw_pixel>
300023a4:	e51b2008 	ldr	r2, [fp, #-8]
300023a8:	e51b3014 	ldr	r3, [fp, #-20]	; 0xffffffec
300023ac:	e0823003 	add	r3, r2, r3
300023b0:	e1a00003 	mov	r0, r3
300023b4:	e51b200c 	ldr	r2, [fp, #-12]
300023b8:	e51b3010 	ldr	r3, [fp, #-16]
300023bc:	e0423003 	sub	r3, r2, r3
300023c0:	e59b2004 	ldr	r2, [fp, #4]
300023c4:	e1a01003 	mov	r1, r3
300023c8:	ebffff39 	bl	300020b4 <fb_draw_pixel>
300023cc:	e51b2008 	ldr	r2, [fp, #-8]
300023d0:	e51b3014 	ldr	r3, [fp, #-20]	; 0xffffffec
300023d4:	e0423003 	sub	r3, r2, r3
300023d8:	e1a00003 	mov	r0, r3
300023dc:	e51b200c 	ldr	r2, [fp, #-12]
300023e0:	e51b3010 	ldr	r3, [fp, #-16]
300023e4:	e0423003 	sub	r3, r2, r3
300023e8:	e59b2004 	ldr	r2, [fp, #4]
300023ec:	e1a01003 	mov	r1, r3
300023f0:	ebffff2f 	bl	300020b4 <fb_draw_pixel>
300023f4:	e1a00000 	nop			; (mov r0, r0)
300023f8:	e24bd004 	sub	sp, fp, #4
300023fc:	e8bd8800 	pop	{fp, pc}

30002400 <fb_draw_circle>:
30002400:	e92d4800 	push	{fp, lr}
30002404:	e28db004 	add	fp, sp, #4
30002408:	e24dd028 	sub	sp, sp, #40	; 0x28
3000240c:	e50b0018 	str	r0, [fp, #-24]	; 0xffffffe8
30002410:	e50b101c 	str	r1, [fp, #-28]	; 0xffffffe4
30002414:	e50b2020 	str	r2, [fp, #-32]	; 0xffffffe0
30002418:	e50b3024 	str	r3, [fp, #-36]	; 0xffffffdc
3000241c:	e3a03000 	mov	r3, #0
30002420:	e50b3008 	str	r3, [fp, #-8]
30002424:	e51b3020 	ldr	r3, [fp, #-32]	; 0xffffffe0
30002428:	e50b300c 	str	r3, [fp, #-12]
3000242c:	e51b3020 	ldr	r3, [fp, #-32]	; 0xffffffe0
30002430:	e1a03083 	lsl	r3, r3, #1
30002434:	e2633003 	rsb	r3, r3, #3
30002438:	e50b3014 	str	r3, [fp, #-20]	; 0xffffffec
3000243c:	e51b3024 	ldr	r3, [fp, #-36]	; 0xffffffdc
30002440:	e3530000 	cmp	r3, #0
30002444:	0a00004d 	beq	30002580 <fb_draw_circle+0x180>
30002448:	ea000028 	b	300024f0 <fb_draw_circle+0xf0>
3000244c:	e51b3008 	ldr	r3, [fp, #-8]
30002450:	e50b3010 	str	r3, [fp, #-16]
30002454:	ea000009 	b	30002480 <fb_draw_circle+0x80>
30002458:	e59b3004 	ldr	r3, [fp, #4]
3000245c:	e58d3000 	str	r3, [sp]
30002460:	e51b3010 	ldr	r3, [fp, #-16]
30002464:	e51b2008 	ldr	r2, [fp, #-8]
30002468:	e51b101c 	ldr	r1, [fp, #-28]	; 0xffffffe4
3000246c:	e51b0018 	ldr	r0, [fp, #-24]	; 0xffffffe8
30002470:	ebffff88 	bl	30002298 <fb_draw_circle_8>
30002474:	e51b3010 	ldr	r3, [fp, #-16]
30002478:	e2833001 	add	r3, r3, #1
3000247c:	e50b3010 	str	r3, [fp, #-16]
30002480:	e51b2010 	ldr	r2, [fp, #-16]
30002484:	e51b300c 	ldr	r3, [fp, #-12]
30002488:	e1520003 	cmp	r2, r3
3000248c:	dafffff1 	ble	30002458 <fb_draw_circle+0x58>
30002490:	e51b3014 	ldr	r3, [fp, #-20]	; 0xffffffec
30002494:	e3530000 	cmp	r3, #0
30002498:	aa000006 	bge	300024b8 <fb_draw_circle+0xb8>
3000249c:	e51b3008 	ldr	r3, [fp, #-8]
300024a0:	e1a02103 	lsl	r2, r3, #2
300024a4:	e51b3014 	ldr	r3, [fp, #-20]	; 0xffffffec
300024a8:	e0823003 	add	r3, r2, r3
300024ac:	e2833006 	add	r3, r3, #6
300024b0:	e50b3014 	str	r3, [fp, #-20]	; 0xffffffec
300024b4:	ea00000a 	b	300024e4 <fb_draw_circle+0xe4>
300024b8:	e51b2008 	ldr	r2, [fp, #-8]
300024bc:	e51b300c 	ldr	r3, [fp, #-12]
300024c0:	e0423003 	sub	r3, r2, r3
300024c4:	e1a02103 	lsl	r2, r3, #2
300024c8:	e51b3014 	ldr	r3, [fp, #-20]	; 0xffffffec
300024cc:	e0823003 	add	r3, r2, r3
300024d0:	e283300a 	add	r3, r3, #10
300024d4:	e50b3014 	str	r3, [fp, #-20]	; 0xffffffec
300024d8:	e51b300c 	ldr	r3, [fp, #-12]
300024dc:	e2433001 	sub	r3, r3, #1
300024e0:	e50b300c 	str	r3, [fp, #-12]
300024e4:	e51b3008 	ldr	r3, [fp, #-8]
300024e8:	e2833001 	add	r3, r3, #1
300024ec:	e50b3008 	str	r3, [fp, #-8]
300024f0:	e51b2008 	ldr	r2, [fp, #-8]
300024f4:	e51b300c 	ldr	r3, [fp, #-12]
300024f8:	e1520003 	cmp	r2, r3
300024fc:	daffffd2 	ble	3000244c <fb_draw_circle+0x4c>
30002500:	ea000022 	b	30002590 <fb_draw_circle+0x190>
30002504:	e59b3004 	ldr	r3, [fp, #4]
30002508:	e58d3000 	str	r3, [sp]
3000250c:	e51b300c 	ldr	r3, [fp, #-12]
30002510:	e51b2008 	ldr	r2, [fp, #-8]
30002514:	e51b101c 	ldr	r1, [fp, #-28]	; 0xffffffe4
30002518:	e51b0018 	ldr	r0, [fp, #-24]	; 0xffffffe8
3000251c:	ebffff5d 	bl	30002298 <fb_draw_circle_8>
30002520:	e51b3014 	ldr	r3, [fp, #-20]	; 0xffffffec
30002524:	e3530000 	cmp	r3, #0
30002528:	aa000006 	bge	30002548 <fb_draw_circle+0x148>
3000252c:	e51b3008 	ldr	r3, [fp, #-8]
30002530:	e1a02103 	lsl	r2, r3, #2
30002534:	e51b3014 	ldr	r3, [fp, #-20]	; 0xffffffec
30002538:	e0823003 	add	r3, r2, r3
3000253c:	e2833006 	add	r3, r3, #6
30002540:	e50b3014 	str	r3, [fp, #-20]	; 0xffffffec
30002544:	ea00000a 	b	30002574 <fb_draw_circle+0x174>
30002548:	e51b2008 	ldr	r2, [fp, #-8]
3000254c:	e51b300c 	ldr	r3, [fp, #-12]
30002550:	e0423003 	sub	r3, r2, r3
30002554:	e1a02103 	lsl	r2, r3, #2
30002558:	e51b3014 	ldr	r3, [fp, #-20]	; 0xffffffec
3000255c:	e0823003 	add	r3, r2, r3
30002560:	e283300a 	add	r3, r3, #10
30002564:	e50b3014 	str	r3, [fp, #-20]	; 0xffffffec
30002568:	e51b300c 	ldr	r3, [fp, #-12]
3000256c:	e2433001 	sub	r3, r3, #1
30002570:	e50b300c 	str	r3, [fp, #-12]
30002574:	e51b3008 	ldr	r3, [fp, #-8]
30002578:	e2833001 	add	r3, r3, #1
3000257c:	e50b3008 	str	r3, [fp, #-8]
30002580:	e51b2008 	ldr	r2, [fp, #-8]
30002584:	e51b300c 	ldr	r3, [fp, #-12]
30002588:	e1520003 	cmp	r2, r3
3000258c:	daffffdc 	ble	30002504 <fb_draw_circle+0x104>
30002590:	e1a00000 	nop			; (mov r0, r0)
30002594:	e24bd004 	sub	sp, fp, #4
30002598:	e8bd8800 	pop	{fp, pc}

3000259c <fb_draw_line>:
3000259c:	e92d4800 	push	{fp, lr}
300025a0:	e28db004 	add	fp, sp, #4
300025a4:	e24dd020 	sub	sp, sp, #32
300025a8:	e50b0018 	str	r0, [fp, #-24]	; 0xffffffe8
300025ac:	e50b101c 	str	r1, [fp, #-28]	; 0xffffffe4
300025b0:	e50b2020 	str	r2, [fp, #-32]	; 0xffffffe0
300025b4:	e50b3024 	str	r3, [fp, #-36]	; 0xffffffdc
300025b8:	e51b2020 	ldr	r2, [fp, #-32]	; 0xffffffe0
300025bc:	e51b3018 	ldr	r3, [fp, #-24]	; 0xffffffe8
300025c0:	e0423003 	sub	r3, r2, r3
300025c4:	e50b300c 	str	r3, [fp, #-12]
300025c8:	e51b2024 	ldr	r2, [fp, #-36]	; 0xffffffdc
300025cc:	e51b301c 	ldr	r3, [fp, #-28]	; 0xffffffe4
300025d0:	e0423003 	sub	r3, r2, r3
300025d4:	e50b3010 	str	r3, [fp, #-16]
300025d8:	e51b300c 	ldr	r3, [fp, #-12]
300025dc:	e3530000 	cmp	r3, #0
300025e0:	ba0000a1 	blt	3000286c <fb_draw_line+0x2d0>
300025e4:	e51b3010 	ldr	r3, [fp, #-16]
300025e8:	e3530000 	cmp	r3, #0
300025ec:	ba00004d 	blt	30002728 <fb_draw_line+0x18c>
300025f0:	e51b200c 	ldr	r2, [fp, #-12]
300025f4:	e51b3010 	ldr	r3, [fp, #-16]
300025f8:	e1520003 	cmp	r2, r3
300025fc:	ba000024 	blt	30002694 <fb_draw_line+0xf8>
30002600:	e51b300c 	ldr	r3, [fp, #-12]
30002604:	e1a02fa3 	lsr	r2, r3, #31
30002608:	e0823003 	add	r3, r2, r3
3000260c:	e1a030c3 	asr	r3, r3, #1
30002610:	e2633000 	rsb	r3, r3, #0
30002614:	e1a02003 	mov	r2, r3
30002618:	e51b3010 	ldr	r3, [fp, #-16]
3000261c:	e0833002 	add	r3, r3, r2
30002620:	e50b3008 	str	r3, [fp, #-8]
30002624:	ea000015 	b	30002680 <fb_draw_line+0xe4>
30002628:	e51b3018 	ldr	r3, [fp, #-24]	; 0xffffffe8
3000262c:	e51b101c 	ldr	r1, [fp, #-28]	; 0xffffffe4
30002630:	e59b2004 	ldr	r2, [fp, #4]
30002634:	e1a00003 	mov	r0, r3
30002638:	ebfffe9d 	bl	300020b4 <fb_draw_pixel>
3000263c:	e51b3008 	ldr	r3, [fp, #-8]
30002640:	e3530000 	cmp	r3, #0
30002644:	da000006 	ble	30002664 <fb_draw_line+0xc8>
30002648:	e51b301c 	ldr	r3, [fp, #-28]	; 0xffffffe4
3000264c:	e2833001 	add	r3, r3, #1
30002650:	e50b301c 	str	r3, [fp, #-28]	; 0xffffffe4
30002654:	e51b2008 	ldr	r2, [fp, #-8]
30002658:	e51b300c 	ldr	r3, [fp, #-12]
3000265c:	e0423003 	sub	r3, r2, r3
30002660:	e50b3008 	str	r3, [fp, #-8]
30002664:	e51b3018 	ldr	r3, [fp, #-24]	; 0xffffffe8
30002668:	e2833001 	add	r3, r3, #1
3000266c:	e50b3018 	str	r3, [fp, #-24]	; 0xffffffe8
30002670:	e51b2008 	ldr	r2, [fp, #-8]
30002674:	e51b3010 	ldr	r3, [fp, #-16]
30002678:	e0823003 	add	r3, r2, r3
3000267c:	e50b3008 	str	r3, [fp, #-8]
30002680:	e51b2018 	ldr	r2, [fp, #-24]	; 0xffffffe8
30002684:	e51b3020 	ldr	r3, [fp, #-32]	; 0xffffffe0
30002688:	e1520003 	cmp	r2, r3
3000268c:	daffffe5 	ble	30002628 <fb_draw_line+0x8c>
30002690:	ea000119 	b	30002afc <fb_draw_line+0x560>
30002694:	e51b3010 	ldr	r3, [fp, #-16]
30002698:	e1a02fa3 	lsr	r2, r3, #31
3000269c:	e0823003 	add	r3, r2, r3
300026a0:	e1a030c3 	asr	r3, r3, #1
300026a4:	e2633000 	rsb	r3, r3, #0
300026a8:	e1a02003 	mov	r2, r3
300026ac:	e51b300c 	ldr	r3, [fp, #-12]
300026b0:	e0833002 	add	r3, r3, r2
300026b4:	e50b3008 	str	r3, [fp, #-8]
300026b8:	ea000015 	b	30002714 <fb_draw_line+0x178>
300026bc:	e51b3018 	ldr	r3, [fp, #-24]	; 0xffffffe8
300026c0:	e51b101c 	ldr	r1, [fp, #-28]	; 0xffffffe4
300026c4:	e59b2004 	ldr	r2, [fp, #4]
300026c8:	e1a00003 	mov	r0, r3
300026cc:	ebfffe78 	bl	300020b4 <fb_draw_pixel>
300026d0:	e51b3008 	ldr	r3, [fp, #-8]
300026d4:	e3530000 	cmp	r3, #0
300026d8:	da000006 	ble	300026f8 <fb_draw_line+0x15c>
300026dc:	e51b3018 	ldr	r3, [fp, #-24]	; 0xffffffe8
300026e0:	e2833001 	add	r3, r3, #1
300026e4:	e50b3018 	str	r3, [fp, #-24]	; 0xffffffe8
300026e8:	e51b2008 	ldr	r2, [fp, #-8]
300026ec:	e51b3010 	ldr	r3, [fp, #-16]
300026f0:	e0423003 	sub	r3, r2, r3
300026f4:	e50b3008 	str	r3, [fp, #-8]
300026f8:	e51b301c 	ldr	r3, [fp, #-28]	; 0xffffffe4
300026fc:	e2833001 	add	r3, r3, #1
30002700:	e50b301c 	str	r3, [fp, #-28]	; 0xffffffe4
30002704:	e51b2008 	ldr	r2, [fp, #-8]
30002708:	e51b300c 	ldr	r3, [fp, #-12]
3000270c:	e0823003 	add	r3, r2, r3
30002710:	e50b3008 	str	r3, [fp, #-8]
30002714:	e51b201c 	ldr	r2, [fp, #-28]	; 0xffffffe4
30002718:	e51b3024 	ldr	r3, [fp, #-36]	; 0xffffffdc
3000271c:	e1520003 	cmp	r2, r3
30002720:	daffffe5 	ble	300026bc <fb_draw_line+0x120>
30002724:	ea0000f4 	b	30002afc <fb_draw_line+0x560>
30002728:	e51b3010 	ldr	r3, [fp, #-16]
3000272c:	e2633000 	rsb	r3, r3, #0
30002730:	e50b3010 	str	r3, [fp, #-16]
30002734:	e51b200c 	ldr	r2, [fp, #-12]
30002738:	e51b3010 	ldr	r3, [fp, #-16]
3000273c:	e1520003 	cmp	r2, r3
30002740:	ba000024 	blt	300027d8 <fb_draw_line+0x23c>
30002744:	e51b300c 	ldr	r3, [fp, #-12]
30002748:	e1a02fa3 	lsr	r2, r3, #31
3000274c:	e0823003 	add	r3, r2, r3
30002750:	e1a030c3 	asr	r3, r3, #1
30002754:	e2633000 	rsb	r3, r3, #0
30002758:	e1a02003 	mov	r2, r3
3000275c:	e51b3010 	ldr	r3, [fp, #-16]
30002760:	e0833002 	add	r3, r3, r2
30002764:	e50b3008 	str	r3, [fp, #-8]
30002768:	ea000015 	b	300027c4 <fb_draw_line+0x228>
3000276c:	e51b3018 	ldr	r3, [fp, #-24]	; 0xffffffe8
30002770:	e51b101c 	ldr	r1, [fp, #-28]	; 0xffffffe4
30002774:	e59b2004 	ldr	r2, [fp, #4]
30002778:	e1a00003 	mov	r0, r3
3000277c:	ebfffe4c 	bl	300020b4 <fb_draw_pixel>
30002780:	e51b3008 	ldr	r3, [fp, #-8]
30002784:	e3530000 	cmp	r3, #0
30002788:	da000006 	ble	300027a8 <fb_draw_line+0x20c>
3000278c:	e51b301c 	ldr	r3, [fp, #-28]	; 0xffffffe4
30002790:	e2433001 	sub	r3, r3, #1
30002794:	e50b301c 	str	r3, [fp, #-28]	; 0xffffffe4
30002798:	e51b2008 	ldr	r2, [fp, #-8]
3000279c:	e51b300c 	ldr	r3, [fp, #-12]
300027a0:	e0423003 	sub	r3, r2, r3
300027a4:	e50b3008 	str	r3, [fp, #-8]
300027a8:	e51b3018 	ldr	r3, [fp, #-24]	; 0xffffffe8
300027ac:	e2833001 	add	r3, r3, #1
300027b0:	e50b3018 	str	r3, [fp, #-24]	; 0xffffffe8
300027b4:	e51b2008 	ldr	r2, [fp, #-8]
300027b8:	e51b3010 	ldr	r3, [fp, #-16]
300027bc:	e0823003 	add	r3, r2, r3
300027c0:	e50b3008 	str	r3, [fp, #-8]
300027c4:	e51b2018 	ldr	r2, [fp, #-24]	; 0xffffffe8
300027c8:	e51b3020 	ldr	r3, [fp, #-32]	; 0xffffffe0
300027cc:	e1520003 	cmp	r2, r3
300027d0:	daffffe5 	ble	3000276c <fb_draw_line+0x1d0>
300027d4:	ea0000c8 	b	30002afc <fb_draw_line+0x560>
300027d8:	e51b3010 	ldr	r3, [fp, #-16]
300027dc:	e1a02fa3 	lsr	r2, r3, #31
300027e0:	e0823003 	add	r3, r2, r3
300027e4:	e1a030c3 	asr	r3, r3, #1
300027e8:	e2633000 	rsb	r3, r3, #0
300027ec:	e1a02003 	mov	r2, r3
300027f0:	e51b300c 	ldr	r3, [fp, #-12]
300027f4:	e0833002 	add	r3, r3, r2
300027f8:	e50b3008 	str	r3, [fp, #-8]
300027fc:	ea000015 	b	30002858 <fb_draw_line+0x2bc>
30002800:	e51b3018 	ldr	r3, [fp, #-24]	; 0xffffffe8
30002804:	e51b101c 	ldr	r1, [fp, #-28]	; 0xffffffe4
30002808:	e59b2004 	ldr	r2, [fp, #4]
3000280c:	e1a00003 	mov	r0, r3
30002810:	ebfffe27 	bl	300020b4 <fb_draw_pixel>
30002814:	e51b3008 	ldr	r3, [fp, #-8]
30002818:	e3530000 	cmp	r3, #0
3000281c:	da000006 	ble	3000283c <fb_draw_line+0x2a0>
30002820:	e51b3018 	ldr	r3, [fp, #-24]	; 0xffffffe8
30002824:	e2833001 	add	r3, r3, #1
30002828:	e50b3018 	str	r3, [fp, #-24]	; 0xffffffe8
3000282c:	e51b2008 	ldr	r2, [fp, #-8]
30002830:	e51b3010 	ldr	r3, [fp, #-16]
30002834:	e0423003 	sub	r3, r2, r3
30002838:	e50b3008 	str	r3, [fp, #-8]
3000283c:	e51b301c 	ldr	r3, [fp, #-28]	; 0xffffffe4
30002840:	e2433001 	sub	r3, r3, #1
30002844:	e50b301c 	str	r3, [fp, #-28]	; 0xffffffe4
30002848:	e51b2008 	ldr	r2, [fp, #-8]
3000284c:	e51b300c 	ldr	r3, [fp, #-12]
30002850:	e0823003 	add	r3, r2, r3
30002854:	e50b3008 	str	r3, [fp, #-8]
30002858:	e51b201c 	ldr	r2, [fp, #-28]	; 0xffffffe4
3000285c:	e51b3024 	ldr	r3, [fp, #-36]	; 0xffffffdc
30002860:	e1520003 	cmp	r2, r3
30002864:	aaffffe5 	bge	30002800 <fb_draw_line+0x264>
30002868:	ea0000a3 	b	30002afc <fb_draw_line+0x560>
3000286c:	e51b300c 	ldr	r3, [fp, #-12]
30002870:	e2633000 	rsb	r3, r3, #0
30002874:	e50b300c 	str	r3, [fp, #-12]
30002878:	e51b3010 	ldr	r3, [fp, #-16]
3000287c:	e3530000 	cmp	r3, #0
30002880:	ba00004d 	blt	300029bc <fb_draw_line+0x420>
30002884:	e51b200c 	ldr	r2, [fp, #-12]
30002888:	e51b3010 	ldr	r3, [fp, #-16]
3000288c:	e1520003 	cmp	r2, r3
30002890:	ba000024 	blt	30002928 <fb_draw_line+0x38c>
30002894:	e51b300c 	ldr	r3, [fp, #-12]
30002898:	e1a02fa3 	lsr	r2, r3, #31
3000289c:	e0823003 	add	r3, r2, r3
300028a0:	e1a030c3 	asr	r3, r3, #1
300028a4:	e2633000 	rsb	r3, r3, #0
300028a8:	e1a02003 	mov	r2, r3
300028ac:	e51b3010 	ldr	r3, [fp, #-16]
300028b0:	e0833002 	add	r3, r3, r2
300028b4:	e50b3008 	str	r3, [fp, #-8]
300028b8:	ea000015 	b	30002914 <fb_draw_line+0x378>
300028bc:	e51b3018 	ldr	r3, [fp, #-24]	; 0xffffffe8
300028c0:	e51b101c 	ldr	r1, [fp, #-28]	; 0xffffffe4
300028c4:	e59b2004 	ldr	r2, [fp, #4]
300028c8:	e1a00003 	mov	r0, r3
300028cc:	ebfffdf8 	bl	300020b4 <fb_draw_pixel>
300028d0:	e51b3008 	ldr	r3, [fp, #-8]
300028d4:	e3530000 	cmp	r3, #0
300028d8:	da000006 	ble	300028f8 <fb_draw_line+0x35c>
300028dc:	e51b301c 	ldr	r3, [fp, #-28]	; 0xffffffe4
300028e0:	e2833001 	add	r3, r3, #1
300028e4:	e50b301c 	str	r3, [fp, #-28]	; 0xffffffe4
300028e8:	e51b2008 	ldr	r2, [fp, #-8]
300028ec:	e51b300c 	ldr	r3, [fp, #-12]
300028f0:	e0423003 	sub	r3, r2, r3
300028f4:	e50b3008 	str	r3, [fp, #-8]
300028f8:	e51b3018 	ldr	r3, [fp, #-24]	; 0xffffffe8
300028fc:	e2433001 	sub	r3, r3, #1
30002900:	e50b3018 	str	r3, [fp, #-24]	; 0xffffffe8
30002904:	e51b2008 	ldr	r2, [fp, #-8]
30002908:	e51b3010 	ldr	r3, [fp, #-16]
3000290c:	e0823003 	add	r3, r2, r3
30002910:	e50b3008 	str	r3, [fp, #-8]
30002914:	e51b2018 	ldr	r2, [fp, #-24]	; 0xffffffe8
30002918:	e51b3020 	ldr	r3, [fp, #-32]	; 0xffffffe0
3000291c:	e1520003 	cmp	r2, r3
30002920:	aaffffe5 	bge	300028bc <fb_draw_line+0x320>
30002924:	ea000074 	b	30002afc <fb_draw_line+0x560>
30002928:	e51b3010 	ldr	r3, [fp, #-16]
3000292c:	e1a02fa3 	lsr	r2, r3, #31
30002930:	e0823003 	add	r3, r2, r3
30002934:	e1a030c3 	asr	r3, r3, #1
30002938:	e2633000 	rsb	r3, r3, #0
3000293c:	e1a02003 	mov	r2, r3
30002940:	e51b300c 	ldr	r3, [fp, #-12]
30002944:	e0833002 	add	r3, r3, r2
30002948:	e50b3008 	str	r3, [fp, #-8]
3000294c:	ea000015 	b	300029a8 <fb_draw_line+0x40c>
30002950:	e51b3018 	ldr	r3, [fp, #-24]	; 0xffffffe8
30002954:	e51b101c 	ldr	r1, [fp, #-28]	; 0xffffffe4
30002958:	e59b2004 	ldr	r2, [fp, #4]
3000295c:	e1a00003 	mov	r0, r3
30002960:	ebfffdd3 	bl	300020b4 <fb_draw_pixel>
30002964:	e51b3008 	ldr	r3, [fp, #-8]
30002968:	e3530000 	cmp	r3, #0
3000296c:	da000006 	ble	3000298c <fb_draw_line+0x3f0>
30002970:	e51b3018 	ldr	r3, [fp, #-24]	; 0xffffffe8
30002974:	e2433001 	sub	r3, r3, #1
30002978:	e50b3018 	str	r3, [fp, #-24]	; 0xffffffe8
3000297c:	e51b2008 	ldr	r2, [fp, #-8]
30002980:	e51b3010 	ldr	r3, [fp, #-16]
30002984:	e0423003 	sub	r3, r2, r3
30002988:	e50b3008 	str	r3, [fp, #-8]
3000298c:	e51b301c 	ldr	r3, [fp, #-28]	; 0xffffffe4
30002990:	e2833001 	add	r3, r3, #1
30002994:	e50b301c 	str	r3, [fp, #-28]	; 0xffffffe4
30002998:	e51b2008 	ldr	r2, [fp, #-8]
3000299c:	e51b300c 	ldr	r3, [fp, #-12]
300029a0:	e0823003 	add	r3, r2, r3
300029a4:	e50b3008 	str	r3, [fp, #-8]
300029a8:	e51b201c 	ldr	r2, [fp, #-28]	; 0xffffffe4
300029ac:	e51b3024 	ldr	r3, [fp, #-36]	; 0xffffffdc
300029b0:	e1520003 	cmp	r2, r3
300029b4:	daffffe5 	ble	30002950 <fb_draw_line+0x3b4>
300029b8:	ea00004f 	b	30002afc <fb_draw_line+0x560>
300029bc:	e51b3010 	ldr	r3, [fp, #-16]
300029c0:	e2633000 	rsb	r3, r3, #0
300029c4:	e50b3010 	str	r3, [fp, #-16]
300029c8:	e51b200c 	ldr	r2, [fp, #-12]
300029cc:	e51b3010 	ldr	r3, [fp, #-16]
300029d0:	e1520003 	cmp	r2, r3
300029d4:	ba000024 	blt	30002a6c <fb_draw_line+0x4d0>
300029d8:	e51b300c 	ldr	r3, [fp, #-12]
300029dc:	e1a02fa3 	lsr	r2, r3, #31
300029e0:	e0823003 	add	r3, r2, r3
300029e4:	e1a030c3 	asr	r3, r3, #1
300029e8:	e2633000 	rsb	r3, r3, #0
300029ec:	e1a02003 	mov	r2, r3
300029f0:	e51b3010 	ldr	r3, [fp, #-16]
300029f4:	e0833002 	add	r3, r3, r2
300029f8:	e50b3008 	str	r3, [fp, #-8]
300029fc:	ea000015 	b	30002a58 <fb_draw_line+0x4bc>
30002a00:	e51b3018 	ldr	r3, [fp, #-24]	; 0xffffffe8
30002a04:	e51b101c 	ldr	r1, [fp, #-28]	; 0xffffffe4
30002a08:	e59b2004 	ldr	r2, [fp, #4]
30002a0c:	e1a00003 	mov	r0, r3
30002a10:	ebfffda7 	bl	300020b4 <fb_draw_pixel>
30002a14:	e51b3008 	ldr	r3, [fp, #-8]
30002a18:	e3530000 	cmp	r3, #0
30002a1c:	da000006 	ble	30002a3c <fb_draw_line+0x4a0>
30002a20:	e51b301c 	ldr	r3, [fp, #-28]	; 0xffffffe4
30002a24:	e2433001 	sub	r3, r3, #1
30002a28:	e50b301c 	str	r3, [fp, #-28]	; 0xffffffe4
30002a2c:	e51b2008 	ldr	r2, [fp, #-8]
30002a30:	e51b300c 	ldr	r3, [fp, #-12]
30002a34:	e0423003 	sub	r3, r2, r3
30002a38:	e50b3008 	str	r3, [fp, #-8]
30002a3c:	e51b3018 	ldr	r3, [fp, #-24]	; 0xffffffe8
30002a40:	e2433001 	sub	r3, r3, #1
30002a44:	e50b3018 	str	r3, [fp, #-24]	; 0xffffffe8
30002a48:	e51b2008 	ldr	r2, [fp, #-8]
30002a4c:	e51b3010 	ldr	r3, [fp, #-16]
30002a50:	e0823003 	add	r3, r2, r3
30002a54:	e50b3008 	str	r3, [fp, #-8]
30002a58:	e51b2018 	ldr	r2, [fp, #-24]	; 0xffffffe8
30002a5c:	e51b3020 	ldr	r3, [fp, #-32]	; 0xffffffe0
30002a60:	e1520003 	cmp	r2, r3
30002a64:	aaffffe5 	bge	30002a00 <fb_draw_line+0x464>
30002a68:	ea000023 	b	30002afc <fb_draw_line+0x560>
30002a6c:	e51b3010 	ldr	r3, [fp, #-16]
30002a70:	e1a02fa3 	lsr	r2, r3, #31
30002a74:	e0823003 	add	r3, r2, r3
30002a78:	e1a030c3 	asr	r3, r3, #1
30002a7c:	e2633000 	rsb	r3, r3, #0
30002a80:	e1a02003 	mov	r2, r3
30002a84:	e51b300c 	ldr	r3, [fp, #-12]
30002a88:	e0833002 	add	r3, r3, r2
30002a8c:	e50b3008 	str	r3, [fp, #-8]
30002a90:	ea000015 	b	30002aec <fb_draw_line+0x550>
30002a94:	e51b3018 	ldr	r3, [fp, #-24]	; 0xffffffe8
30002a98:	e51b101c 	ldr	r1, [fp, #-28]	; 0xffffffe4
30002a9c:	e59b2004 	ldr	r2, [fp, #4]
30002aa0:	e1a00003 	mov	r0, r3
30002aa4:	ebfffd82 	bl	300020b4 <fb_draw_pixel>
30002aa8:	e51b3008 	ldr	r3, [fp, #-8]
30002aac:	e3530000 	cmp	r3, #0
30002ab0:	da000006 	ble	30002ad0 <fb_draw_line+0x534>
30002ab4:	e51b3018 	ldr	r3, [fp, #-24]	; 0xffffffe8
30002ab8:	e2433001 	sub	r3, r3, #1
30002abc:	e50b3018 	str	r3, [fp, #-24]	; 0xffffffe8
30002ac0:	e51b2008 	ldr	r2, [fp, #-8]
30002ac4:	e51b3010 	ldr	r3, [fp, #-16]
30002ac8:	e0423003 	sub	r3, r2, r3
30002acc:	e50b3008 	str	r3, [fp, #-8]
30002ad0:	e51b301c 	ldr	r3, [fp, #-28]	; 0xffffffe4
30002ad4:	e2433001 	sub	r3, r3, #1
30002ad8:	e50b301c 	str	r3, [fp, #-28]	; 0xffffffe4
30002adc:	e51b2008 	ldr	r2, [fp, #-8]
30002ae0:	e51b300c 	ldr	r3, [fp, #-12]
30002ae4:	e0823003 	add	r3, r2, r3
30002ae8:	e50b3008 	str	r3, [fp, #-8]
30002aec:	e51b201c 	ldr	r2, [fp, #-28]	; 0xffffffe4
30002af0:	e51b3024 	ldr	r3, [fp, #-36]	; 0xffffffdc
30002af4:	e1520003 	cmp	r2, r3
30002af8:	aaffffe5 	bge	30002a94 <fb_draw_line+0x4f8>
30002afc:	e1a00000 	nop			; (mov r0, r0)
30002b00:	e24bd004 	sub	sp, fp, #4
30002b04:	e8bd8800 	pop	{fp, pc}

30002b08 <fb_draw_cross>:
30002b08:	e92d4800 	push	{fp, lr}
30002b0c:	e28db004 	add	fp, sp, #4
30002b10:	e24dd018 	sub	sp, sp, #24
30002b14:	e50b0008 	str	r0, [fp, #-8]
30002b18:	e50b100c 	str	r1, [fp, #-12]
30002b1c:	e50b2010 	str	r2, [fp, #-16]
30002b20:	e50b3014 	str	r3, [fp, #-20]	; 0xffffffec
30002b24:	e51b2008 	ldr	r2, [fp, #-8]
30002b28:	e51b3010 	ldr	r3, [fp, #-16]
30002b2c:	e0423003 	sub	r3, r2, r3
30002b30:	e1a00003 	mov	r0, r3
30002b34:	e51b100c 	ldr	r1, [fp, #-12]
30002b38:	e51b2008 	ldr	r2, [fp, #-8]
30002b3c:	e51b3010 	ldr	r3, [fp, #-16]
30002b40:	e0823003 	add	r3, r2, r3
30002b44:	e1a0c003 	mov	ip, r3
30002b48:	e51b200c 	ldr	r2, [fp, #-12]
30002b4c:	e51b3014 	ldr	r3, [fp, #-20]	; 0xffffffec
30002b50:	e58d3000 	str	r3, [sp]
30002b54:	e1a03002 	mov	r3, r2
30002b58:	e1a0200c 	mov	r2, ip
30002b5c:	ebfffe8e 	bl	3000259c <fb_draw_line>
30002b60:	e51b0008 	ldr	r0, [fp, #-8]
30002b64:	e51b200c 	ldr	r2, [fp, #-12]
30002b68:	e51b3010 	ldr	r3, [fp, #-16]
30002b6c:	e0423003 	sub	r3, r2, r3
30002b70:	e1a0c003 	mov	ip, r3
30002b74:	e51b1008 	ldr	r1, [fp, #-8]
30002b78:	e51b200c 	ldr	r2, [fp, #-12]
30002b7c:	e51b3010 	ldr	r3, [fp, #-16]
30002b80:	e0823003 	add	r3, r2, r3
30002b84:	e1a02003 	mov	r2, r3
30002b88:	e51b3014 	ldr	r3, [fp, #-20]	; 0xffffffec
30002b8c:	e58d3000 	str	r3, [sp]
30002b90:	e1a03002 	mov	r3, r2
30002b94:	e1a02001 	mov	r2, r1
30002b98:	e1a0100c 	mov	r1, ip
30002b9c:	ebfffe7e 	bl	3000259c <fb_draw_line>
30002ba0:	e1a00000 	nop			; (mov r0, r0)
30002ba4:	e24bd004 	sub	sp, fp, #4
30002ba8:	e8bd8800 	pop	{fp, pc}

30002bac <jz2440_lcd_pin_init>:
30002bac:	e52db004 	push	{fp}		; (str fp, [sp, #-4]!)
30002bb0:	e28db000 	add	fp, sp, #0
30002bb4:	e59f304c 	ldr	r3, [pc, #76]	; 30002c08 <jz2440_lcd_pin_init+0x5c>
30002bb8:	e5932000 	ldr	r2, [r3]
30002bbc:	e59f1044 	ldr	r1, [pc, #68]	; 30002c08 <jz2440_lcd_pin_init+0x5c>
30002bc0:	e59f3044 	ldr	r3, [pc, #68]	; 30002c0c <jz2440_lcd_pin_init+0x60>
30002bc4:	e1823003 	orr	r3, r2, r3
30002bc8:	e5813000 	str	r3, [r1]
30002bcc:	e59f303c 	ldr	r3, [pc, #60]	; 30002c10 <jz2440_lcd_pin_init+0x64>
30002bd0:	e5932000 	ldr	r2, [r3]
30002bd4:	e59f1034 	ldr	r1, [pc, #52]	; 30002c10 <jz2440_lcd_pin_init+0x64>
30002bd8:	e59f302c 	ldr	r3, [pc, #44]	; 30002c0c <jz2440_lcd_pin_init+0x60>
30002bdc:	e1823003 	orr	r3, r2, r3
30002be0:	e5813000 	str	r3, [r1]
30002be4:	e59f3028 	ldr	r3, [pc, #40]	; 30002c14 <jz2440_lcd_pin_init+0x68>
30002be8:	e5933000 	ldr	r3, [r3]
30002bec:	e59f2020 	ldr	r2, [pc, #32]	; 30002c14 <jz2440_lcd_pin_init+0x68>
30002bf0:	e3833001 	orr	r3, r3, #1
30002bf4:	e5823000 	str	r3, [r2]
30002bf8:	e1a00000 	nop			; (mov r0, r0)
30002bfc:	e28bd000 	add	sp, fp, #0
30002c00:	e49db004 	pop	{fp}		; (ldr fp, [sp], #4)
30002c04:	e1a0f00e 	mov	pc, lr
30002c08:	56000020 	strpl	r0, [r0], -r0, lsr #32
30002c0c:	aaaaaaaa 	bge	2eaad6bc <__start_text-0x1552944>
30002c10:	56000030 			; <UNDEFINED> instruction: 0x56000030
30002c14:	56000010 			; <UNDEFINED> instruction: 0x56000010

30002c18 <jz2440_lcd_control_init>:
30002c18:	e92d4800 	push	{fp, lr}
30002c1c:	e28db004 	add	fp, sp, #4
30002c20:	e24dd008 	sub	sp, sp, #8
30002c24:	e50b0008 	str	r0, [fp, #-8]
30002c28:	ebffffdf 	bl	30002bac <jz2440_lcd_pin_init>
30002c2c:	e3a0344d 	mov	r3, #1291845632	; 0x4d000000
30002c30:	e5933000 	ldr	r3, [r3]
30002c34:	e3a0244d 	mov	r2, #1291845632	; 0x4d000000
30002c38:	e3833e76 	orr	r3, r3, #1888	; 0x760
30002c3c:	e5823000 	str	r3, [r2]
30002c40:	e51b3008 	ldr	r3, [fp, #-8]
30002c44:	e593302c 	ldr	r3, [r3, #44]	; 0x2c
30002c48:	e3530010 	cmp	r3, #16
30002c4c:	1a000005 	bne	30002c68 <jz2440_lcd_control_init+0x50>
30002c50:	e3a0344d 	mov	r3, #1291845632	; 0x4d000000
30002c54:	e5933000 	ldr	r3, [r3]
30002c58:	e3a0244d 	mov	r2, #1291845632	; 0x4d000000
30002c5c:	e3833018 	orr	r3, r3, #24
30002c60:	e5823000 	str	r3, [r2]
30002c64:	ea000012 	b	30002cb4 <jz2440_lcd_control_init+0x9c>
30002c68:	e51b3008 	ldr	r3, [fp, #-8]
30002c6c:	e593302c 	ldr	r3, [r3, #44]	; 0x2c
30002c70:	e3530008 	cmp	r3, #8
30002c74:	1a000005 	bne	30002c90 <jz2440_lcd_control_init+0x78>
30002c78:	e3a0344d 	mov	r3, #1291845632	; 0x4d000000
30002c7c:	e5933000 	ldr	r3, [r3]
30002c80:	e3a0244d 	mov	r2, #1291845632	; 0x4d000000
30002c84:	e3833016 	orr	r3, r3, #22
30002c88:	e5823000 	str	r3, [r2]
30002c8c:	ea000008 	b	30002cb4 <jz2440_lcd_control_init+0x9c>
30002c90:	e51b3008 	ldr	r3, [fp, #-8]
30002c94:	e593302c 	ldr	r3, [r3, #44]	; 0x2c
30002c98:	e3530018 	cmp	r3, #24
30002c9c:	1a00006f 	bne	30002e60 <jz2440_lcd_control_init+0x248>
30002ca0:	e3a0344d 	mov	r3, #1291845632	; 0x4d000000
30002ca4:	e5933000 	ldr	r3, [r3]
30002ca8:	e3a0244d 	mov	r2, #1291845632	; 0x4d000000
30002cac:	e383301a 	orr	r3, r3, #26
30002cb0:	e5823000 	str	r3, [r2]
30002cb4:	e59f31b0 	ldr	r3, [pc, #432]	; 30002e6c <jz2440_lcd_control_init+0x254>
30002cb8:	e5932000 	ldr	r2, [r3]
30002cbc:	e51b3008 	ldr	r3, [fp, #-8]
30002cc0:	e5933014 	ldr	r3, [r3, #20]
30002cc4:	e2433001 	sub	r3, r3, #1
30002cc8:	e1a01c03 	lsl	r1, r3, #24
30002ccc:	e51b3008 	ldr	r3, [fp, #-8]
30002cd0:	e5933028 	ldr	r3, [r3, #40]	; 0x28
30002cd4:	e2433001 	sub	r3, r3, #1
30002cd8:	e1a03703 	lsl	r3, r3, #14
30002cdc:	e1811003 	orr	r1, r1, r3
30002ce0:	e51b3008 	ldr	r3, [fp, #-8]
30002ce4:	e5933018 	ldr	r3, [r3, #24]
30002ce8:	e2433001 	sub	r3, r3, #1
30002cec:	e1a03303 	lsl	r3, r3, #6
30002cf0:	e1811003 	orr	r1, r1, r3
30002cf4:	e51b3008 	ldr	r3, [fp, #-8]
30002cf8:	e5933010 	ldr	r3, [r3, #16]
30002cfc:	e2433001 	sub	r3, r3, #1
30002d00:	e1813003 	orr	r3, r1, r3
30002d04:	e59f1160 	ldr	r1, [pc, #352]	; 30002e6c <jz2440_lcd_control_init+0x254>
30002d08:	e1823003 	orr	r3, r2, r3
30002d0c:	e5813000 	str	r3, [r1]
30002d10:	e59f3158 	ldr	r3, [pc, #344]	; 30002e70 <jz2440_lcd_control_init+0x258>
30002d14:	e5932000 	ldr	r2, [r3]
30002d18:	e51b3008 	ldr	r3, [fp, #-8]
30002d1c:	e5933008 	ldr	r3, [r3, #8]
30002d20:	e2433001 	sub	r3, r3, #1
30002d24:	e1a01983 	lsl	r1, r3, #19
30002d28:	e51b3008 	ldr	r3, [fp, #-8]
30002d2c:	e5933024 	ldr	r3, [r3, #36]	; 0x24
30002d30:	e2433001 	sub	r3, r3, #1
30002d34:	e1a03403 	lsl	r3, r3, #8
30002d38:	e1811003 	orr	r1, r1, r3
30002d3c:	e51b3008 	ldr	r3, [fp, #-8]
30002d40:	e593300c 	ldr	r3, [r3, #12]
30002d44:	e2433001 	sub	r3, r3, #1
30002d48:	e1813003 	orr	r3, r1, r3
30002d4c:	e59f111c 	ldr	r1, [pc, #284]	; 30002e70 <jz2440_lcd_control_init+0x258>
30002d50:	e1823003 	orr	r3, r2, r3
30002d54:	e5813000 	str	r3, [r1]
30002d58:	e59f3114 	ldr	r3, [pc, #276]	; 30002e74 <jz2440_lcd_control_init+0x25c>
30002d5c:	e5932000 	ldr	r2, [r3]
30002d60:	e51b3008 	ldr	r3, [fp, #-8]
30002d64:	e5933004 	ldr	r3, [r3, #4]
30002d68:	e2433001 	sub	r3, r3, #1
30002d6c:	e59f1100 	ldr	r1, [pc, #256]	; 30002e74 <jz2440_lcd_control_init+0x25c>
30002d70:	e1823003 	orr	r3, r2, r3
30002d74:	e5813000 	str	r3, [r1]
30002d78:	e51b3008 	ldr	r3, [fp, #-8]
30002d7c:	e593302c 	ldr	r3, [r3, #44]	; 0x2c
30002d80:	e3530010 	cmp	r3, #16
30002d84:	1a000004 	bne	30002d9c <jz2440_lcd_control_init+0x184>
30002d88:	e59f30e8 	ldr	r3, [pc, #232]	; 30002e78 <jz2440_lcd_control_init+0x260>
30002d8c:	e5933000 	ldr	r3, [r3]
30002d90:	e59f20e0 	ldr	r2, [pc, #224]	; 30002e78 <jz2440_lcd_control_init+0x260>
30002d94:	e3833b02 	orr	r3, r3, #2048	; 0x800
30002d98:	e5823000 	str	r3, [r2]
30002d9c:	e59f30d4 	ldr	r3, [pc, #212]	; 30002e78 <jz2440_lcd_control_init+0x260>
30002da0:	e5933000 	ldr	r3, [r3]
30002da4:	e51b2008 	ldr	r2, [fp, #-8]
30002da8:	e5d2201f 	ldrb	r2, [r2, #31]
30002dac:	e1a01502 	lsl	r1, r2, #10
30002db0:	e51b2008 	ldr	r2, [fp, #-8]
30002db4:	e5d2201d 	ldrb	r2, [r2, #29]
30002db8:	e1a02482 	lsl	r2, r2, #9
30002dbc:	e1811002 	orr	r1, r1, r2
30002dc0:	e51b2008 	ldr	r2, [fp, #-8]
30002dc4:	e5d2201e 	ldrb	r2, [r2, #30]
30002dc8:	e1a02402 	lsl	r2, r2, #8
30002dcc:	e1811002 	orr	r1, r1, r2
30002dd0:	e51b2008 	ldr	r2, [fp, #-8]
30002dd4:	e5d22020 	ldrb	r2, [r2, #32]
30002dd8:	e1a02382 	lsl	r2, r2, #7
30002ddc:	e1811002 	orr	r1, r1, r2
30002de0:	e51b2008 	ldr	r2, [fp, #-8]
30002de4:	e5d2201c 	ldrb	r2, [r2, #28]
30002de8:	e1a02302 	lsl	r2, r2, #6
30002dec:	e1812002 	orr	r2, r1, r2
30002df0:	e1833002 	orr	r3, r3, r2
30002df4:	e59f207c 	ldr	r2, [pc, #124]	; 30002e78 <jz2440_lcd_control_init+0x260>
30002df8:	e3833001 	orr	r3, r3, #1
30002dfc:	e5823000 	str	r3, [r2]
30002e00:	e51b3008 	ldr	r3, [fp, #-8]
30002e04:	e5933030 	ldr	r3, [r3, #48]	; 0x30
30002e08:	e1a030a3 	lsr	r3, r3, #1
30002e0c:	e59f2068 	ldr	r2, [pc, #104]	; 30002e7c <jz2440_lcd_control_init+0x264>
30002e10:	e3c33103 	bic	r3, r3, #-1073741824	; 0xc0000000
30002e14:	e5823000 	str	r3, [r2]
30002e18:	e51b3008 	ldr	r3, [fp, #-8]
30002e1c:	e5932030 	ldr	r2, [r3, #48]	; 0x30
30002e20:	e51b3008 	ldr	r3, [fp, #-8]
30002e24:	e5933024 	ldr	r3, [r3, #36]	; 0x24
30002e28:	e51b1008 	ldr	r1, [fp, #-8]
30002e2c:	e5911028 	ldr	r1, [r1, #40]	; 0x28
30002e30:	e0030391 	mul	r3, r1, r3
30002e34:	e51b1008 	ldr	r1, [fp, #-8]
30002e38:	e591102c 	ldr	r1, [r1, #44]	; 0x2c
30002e3c:	e0030391 	mul	r3, r1, r3
30002e40:	e1a031a3 	lsr	r3, r3, #3
30002e44:	e0823003 	add	r3, r2, r3
30002e48:	e1a030a3 	lsr	r3, r3, #1
30002e4c:	e59f202c 	ldr	r2, [pc, #44]	; 30002e80 <jz2440_lcd_control_init+0x268>
30002e50:	e3c334ff 	bic	r3, r3, #-16777216	; 0xff000000
30002e54:	e3c3360e 	bic	r3, r3, #14680064	; 0xe00000
30002e58:	e5823000 	str	r3, [r2]
30002e5c:	ea000000 	b	30002e64 <jz2440_lcd_control_init+0x24c>
30002e60:	e1a00000 	nop			; (mov r0, r0)
30002e64:	e24bd004 	sub	sp, fp, #4
30002e68:	e8bd8800 	pop	{fp, pc}
30002e6c:	4d000004 	stcmi	0, cr0, [r0, #-16]
30002e70:	4d000008 	stcmi	0, cr0, [r0, #-32]	; 0xffffffe0
30002e74:	4d00000c 	stcmi	0, cr0, [r0, #-48]	; 0xffffffd0
30002e78:	4d000010 	stcmi	0, cr0, [r0, #-64]	; 0xffffffc0
30002e7c:	4d000014 	stcmi	0, cr0, [r0, #-80]	; 0xffffffb0
30002e80:	4d000018 	stcmi	0, cr0, [r0, #-96]	; 0xffffffa0

30002e84 <jz2440_lcd_control_enable>:
30002e84:	e52db004 	push	{fp}		; (str fp, [sp, #-4]!)
30002e88:	e28db000 	add	fp, sp, #0
30002e8c:	e3a0344d 	mov	r3, #1291845632	; 0x4d000000
30002e90:	e5933000 	ldr	r3, [r3]
30002e94:	e3a0244d 	mov	r2, #1291845632	; 0x4d000000
30002e98:	e3833001 	orr	r3, r3, #1
30002e9c:	e5823000 	str	r3, [r2]
30002ea0:	e59f301c 	ldr	r3, [pc, #28]	; 30002ec4 <jz2440_lcd_control_enable+0x40>
30002ea4:	e5933000 	ldr	r3, [r3]
30002ea8:	e59f2014 	ldr	r2, [pc, #20]	; 30002ec4 <jz2440_lcd_control_enable+0x40>
30002eac:	e3833001 	orr	r3, r3, #1
30002eb0:	e5823000 	str	r3, [r2]
30002eb4:	e1a00000 	nop			; (mov r0, r0)
30002eb8:	e28bd000 	add	sp, fp, #0
30002ebc:	e49db004 	pop	{fp}		; (ldr fp, [sp], #4)
30002ec0:	e1a0f00e 	mov	pc, lr
30002ec4:	56000014 			; <UNDEFINED> instruction: 0x56000014

30002ec8 <jz2440_lcd_control_disable>:
30002ec8:	e52db004 	push	{fp}		; (str fp, [sp, #-4]!)
30002ecc:	e28db000 	add	fp, sp, #0
30002ed0:	e3a0344d 	mov	r3, #1291845632	; 0x4d000000
30002ed4:	e5933000 	ldr	r3, [r3]
30002ed8:	e3a0244d 	mov	r2, #1291845632	; 0x4d000000
30002edc:	e3c33001 	bic	r3, r3, #1
30002ee0:	e5823000 	str	r3, [r2]
30002ee4:	e59f301c 	ldr	r3, [pc, #28]	; 30002f08 <jz2440_lcd_control_disable+0x40>
30002ee8:	e5933000 	ldr	r3, [r3]
30002eec:	e59f2014 	ldr	r2, [pc, #20]	; 30002f08 <jz2440_lcd_control_disable+0x40>
30002ef0:	e3c33001 	bic	r3, r3, #1
30002ef4:	e5823000 	str	r3, [r2]
30002ef8:	e1a00000 	nop			; (mov r0, r0)
30002efc:	e28bd000 	add	sp, fp, #0
30002f00:	e49db004 	pop	{fp}		; (ldr fp, [sp], #4)
30002f04:	e1a0f00e 	mov	pc, lr
30002f08:	56000014 			; <UNDEFINED> instruction: 0x56000014

30002f0c <lcd_register>:
30002f0c:	e52db004 	push	{fp}		; (str fp, [sp, #-4]!)
30002f10:	e28db000 	add	fp, sp, #0
30002f14:	e24dd014 	sub	sp, sp, #20
30002f18:	e50b0010 	str	r0, [fp, #-16]
30002f1c:	e3a03000 	mov	r3, #0
30002f20:	e50b3008 	str	r3, [fp, #-8]
30002f24:	ea00000d 	b	30002f60 <lcd_register+0x54>
30002f28:	e59f2050 	ldr	r2, [pc, #80]	; 30002f80 <lcd_register+0x74>
30002f2c:	e51b3008 	ldr	r3, [fp, #-8]
30002f30:	e7923103 	ldr	r3, [r2, r3, lsl #2]
30002f34:	e3530000 	cmp	r3, #0
30002f38:	1a000005 	bne	30002f54 <lcd_register+0x48>
30002f3c:	e59f103c 	ldr	r1, [pc, #60]	; 30002f80 <lcd_register+0x74>
30002f40:	e51b3008 	ldr	r3, [fp, #-8]
30002f44:	e51b2010 	ldr	r2, [fp, #-16]
30002f48:	e7812103 	str	r2, [r1, r3, lsl #2]
30002f4c:	e3a03000 	mov	r3, #0
30002f50:	ea000006 	b	30002f70 <lcd_register+0x64>
30002f54:	e51b3008 	ldr	r3, [fp, #-8]
30002f58:	e2833001 	add	r3, r3, #1
30002f5c:	e50b3008 	str	r3, [fp, #-8]
30002f60:	e51b3008 	ldr	r3, [fp, #-8]
30002f64:	e3530009 	cmp	r3, #9
30002f68:	daffffee 	ble	30002f28 <lcd_register+0x1c>
30002f6c:	e3e03000 	mvn	r3, #0
30002f70:	e1a00003 	mov	r0, r3
30002f74:	e28bd000 	add	sp, fp, #0
30002f78:	e49db004 	pop	{fp}		; (ldr fp, [sp], #4)
30002f7c:	e1a0f00e 	mov	pc, lr
30002f80:	30007770 	andcc	r7, r0, r0, ror r7

30002f84 <lcd_select>:
30002f84:	e92d4800 	push	{fp, lr}
30002f88:	e28db004 	add	fp, sp, #4
30002f8c:	e24dd010 	sub	sp, sp, #16
30002f90:	e50b0010 	str	r0, [fp, #-16]
30002f94:	e3a03000 	mov	r3, #0
30002f98:	e50b3008 	str	r3, [fp, #-8]
30002f9c:	ea000018 	b	30003004 <lcd_select+0x80>
30002fa0:	e59f2078 	ldr	r2, [pc, #120]	; 30003020 <lcd_select+0x9c>
30002fa4:	e51b3008 	ldr	r3, [fp, #-8]
30002fa8:	e7923103 	ldr	r3, [r2, r3, lsl #2]
30002fac:	e3530000 	cmp	r3, #0
30002fb0:	0a000010 	beq	30002ff8 <lcd_select+0x74>
30002fb4:	e59f2064 	ldr	r2, [pc, #100]	; 30003020 <lcd_select+0x9c>
30002fb8:	e51b3008 	ldr	r3, [fp, #-8]
30002fbc:	e7923103 	ldr	r3, [r2, r3, lsl #2]
30002fc0:	e5933000 	ldr	r3, [r3]
30002fc4:	e1a01003 	mov	r1, r3
30002fc8:	e51b0010 	ldr	r0, [fp, #-16]
30002fcc:	ebfffb8e 	bl	30001e0c <strcmp>
30002fd0:	e1a03000 	mov	r3, r0
30002fd4:	e3530000 	cmp	r3, #0
30002fd8:	1a000006 	bne	30002ff8 <lcd_select+0x74>
30002fdc:	e59f203c 	ldr	r2, [pc, #60]	; 30003020 <lcd_select+0x9c>
30002fe0:	e51b3008 	ldr	r3, [fp, #-8]
30002fe4:	e7923103 	ldr	r3, [r2, r3, lsl #2]
30002fe8:	e59f2034 	ldr	r2, [pc, #52]	; 30003024 <lcd_select+0xa0>
30002fec:	e5823000 	str	r3, [r2]
30002ff0:	e3a03000 	mov	r3, #0
30002ff4:	ea000006 	b	30003014 <lcd_select+0x90>
30002ff8:	e51b3008 	ldr	r3, [fp, #-8]
30002ffc:	e2833001 	add	r3, r3, #1
30003000:	e50b3008 	str	r3, [fp, #-8]
30003004:	e51b3008 	ldr	r3, [fp, #-8]
30003008:	e3530009 	cmp	r3, #9
3000300c:	daffffe3 	ble	30002fa0 <lcd_select+0x1c>
30003010:	e3e03000 	mvn	r3, #0
30003014:	e1a00003 	mov	r0, r3
30003018:	e24bd004 	sub	sp, fp, #4
3000301c:	e8bd8800 	pop	{fp, pc}
30003020:	30007770 	andcc	r7, r0, r0, ror r7
30003024:	30007798 	mulcc	r0, r8, r7

30003028 <lcd_init>:
30003028:	e92d4800 	push	{fp, lr}
3000302c:	e28db004 	add	fp, sp, #4
30003030:	e59f0060 	ldr	r0, [pc, #96]	; 30003098 <lcd_init+0x70>
30003034:	eb000050 	bl	3000317c <lcd_control_register>
30003038:	e59f005c 	ldr	r0, [pc, #92]	; 3000309c <lcd_init+0x74>
3000303c:	eb000025 	bl	300030d8 <lcd_control_select>
30003040:	e1a03000 	mov	r3, r0
30003044:	e3730001 	cmn	r3, #1
30003048:	1a000001 	bne	30003054 <lcd_init+0x2c>
3000304c:	e59f004c 	ldr	r0, [pc, #76]	; 300030a0 <lcd_init+0x78>
30003050:	ebfff829 	bl	300010fc <puts>
30003054:	e59f0048 	ldr	r0, [pc, #72]	; 300030a4 <lcd_init+0x7c>
30003058:	ebffffab 	bl	30002f0c <lcd_register>
3000305c:	e59f0044 	ldr	r0, [pc, #68]	; 300030a8 <lcd_init+0x80>
30003060:	ebffffc7 	bl	30002f84 <lcd_select>
30003064:	e1a03000 	mov	r3, r0
30003068:	e3730001 	cmn	r3, #1
3000306c:	1a000001 	bne	30003078 <lcd_init+0x50>
30003070:	e59f0034 	ldr	r0, [pc, #52]	; 300030ac <lcd_init+0x84>
30003074:	ebfff820 	bl	300010fc <puts>
30003078:	e59f3030 	ldr	r3, [pc, #48]	; 300030b0 <lcd_init+0x88>
3000307c:	e5933000 	ldr	r3, [r3]
30003080:	e1a00003 	mov	r0, r3
30003084:	eb00005a 	bl	300031f4 <lcd_control_init>
30003088:	eb00006e 	bl	30003248 <lcd_control_enable>
3000308c:	e3a03000 	mov	r3, #0
30003090:	e1a00003 	mov	r0, r3
30003094:	e8bd8800 	pop	{fp, pc}
30003098:	3000767c 	andcc	r7, r0, ip, ror r6
3000309c:	300073ac 	andcc	r7, r0, ip, lsr #7
300030a0:	300073b4 			; <UNDEFINED> instruction: 0x300073b4
300030a4:	30007648 	andcc	r7, r0, r8, asr #12
300030a8:	300073d0 	ldrdcc	r7, [r0], -r0
300030ac:	300073dc 	ldrdcc	r7, [r0], -ip
300030b0:	30007798 	mulcc	r0, r8, r7

300030b4 <lcd_get_params>:
300030b4:	e52db004 	push	{fp}		; (str fp, [sp, #-4]!)
300030b8:	e28db000 	add	fp, sp, #0
300030bc:	e59f3010 	ldr	r3, [pc, #16]	; 300030d4 <lcd_get_params+0x20>
300030c0:	e5933000 	ldr	r3, [r3]
300030c4:	e1a00003 	mov	r0, r3
300030c8:	e28bd000 	add	sp, fp, #0
300030cc:	e49db004 	pop	{fp}		; (ldr fp, [sp], #4)
300030d0:	e1a0f00e 	mov	pc, lr
300030d4:	30007798 	mulcc	r0, r8, r7

300030d8 <lcd_control_select>:
300030d8:	e92d4800 	push	{fp, lr}
300030dc:	e28db004 	add	fp, sp, #4
300030e0:	e24dd010 	sub	sp, sp, #16
300030e4:	e50b0010 	str	r0, [fp, #-16]
300030e8:	e3a03000 	mov	r3, #0
300030ec:	e50b3008 	str	r3, [fp, #-8]
300030f0:	ea000018 	b	30003158 <lcd_control_select+0x80>
300030f4:	e59f2078 	ldr	r2, [pc, #120]	; 30003174 <lcd_control_select+0x9c>
300030f8:	e51b3008 	ldr	r3, [fp, #-8]
300030fc:	e7923103 	ldr	r3, [r2, r3, lsl #2]
30003100:	e3530000 	cmp	r3, #0
30003104:	0a000010 	beq	3000314c <lcd_control_select+0x74>
30003108:	e59f2064 	ldr	r2, [pc, #100]	; 30003174 <lcd_control_select+0x9c>
3000310c:	e51b3008 	ldr	r3, [fp, #-8]
30003110:	e7923103 	ldr	r3, [r2, r3, lsl #2]
30003114:	e5933000 	ldr	r3, [r3]
30003118:	e1a01003 	mov	r1, r3
3000311c:	e51b0010 	ldr	r0, [fp, #-16]
30003120:	ebfffb39 	bl	30001e0c <strcmp>
30003124:	e1a03000 	mov	r3, r0
30003128:	e3530000 	cmp	r3, #0
3000312c:	1a000006 	bne	3000314c <lcd_control_select+0x74>
30003130:	e59f203c 	ldr	r2, [pc, #60]	; 30003174 <lcd_control_select+0x9c>
30003134:	e51b3008 	ldr	r3, [fp, #-8]
30003138:	e7923103 	ldr	r3, [r2, r3, lsl #2]
3000313c:	e59f2034 	ldr	r2, [pc, #52]	; 30003178 <lcd_control_select+0xa0>
30003140:	e5823000 	str	r3, [r2]
30003144:	e51b3008 	ldr	r3, [fp, #-8]
30003148:	ea000006 	b	30003168 <lcd_control_select+0x90>
3000314c:	e51b3008 	ldr	r3, [fp, #-8]
30003150:	e2833001 	add	r3, r3, #1
30003154:	e50b3008 	str	r3, [fp, #-8]
30003158:	e51b3008 	ldr	r3, [fp, #-8]
3000315c:	e3530009 	cmp	r3, #9
30003160:	daffffe3 	ble	300030f4 <lcd_control_select+0x1c>
30003164:	e3e03000 	mvn	r3, #0
30003168:	e1a00003 	mov	r0, r3
3000316c:	e24bd004 	sub	sp, fp, #4
30003170:	e8bd8800 	pop	{fp, pc}
30003174:	3000779c 	mulcc	r0, ip, r7
30003178:	300077c4 	andcc	r7, r0, r4, asr #15

3000317c <lcd_control_register>:
3000317c:	e52db004 	push	{fp}		; (str fp, [sp, #-4]!)
30003180:	e28db000 	add	fp, sp, #0
30003184:	e24dd014 	sub	sp, sp, #20
30003188:	e50b0010 	str	r0, [fp, #-16]
3000318c:	e3a03000 	mov	r3, #0
30003190:	e50b3008 	str	r3, [fp, #-8]
30003194:	ea00000d 	b	300031d0 <lcd_control_register+0x54>
30003198:	e59f2050 	ldr	r2, [pc, #80]	; 300031f0 <lcd_control_register+0x74>
3000319c:	e51b3008 	ldr	r3, [fp, #-8]
300031a0:	e7923103 	ldr	r3, [r2, r3, lsl #2]
300031a4:	e3530000 	cmp	r3, #0
300031a8:	1a000005 	bne	300031c4 <lcd_control_register+0x48>
300031ac:	e59f103c 	ldr	r1, [pc, #60]	; 300031f0 <lcd_control_register+0x74>
300031b0:	e51b3008 	ldr	r3, [fp, #-8]
300031b4:	e51b2010 	ldr	r2, [fp, #-16]
300031b8:	e7812103 	str	r2, [r1, r3, lsl #2]
300031bc:	e3a03000 	mov	r3, #0
300031c0:	ea000006 	b	300031e0 <lcd_control_register+0x64>
300031c4:	e51b3008 	ldr	r3, [fp, #-8]
300031c8:	e2833001 	add	r3, r3, #1
300031cc:	e50b3008 	str	r3, [fp, #-8]
300031d0:	e51b3008 	ldr	r3, [fp, #-8]
300031d4:	e3530009 	cmp	r3, #9
300031d8:	daffffee 	ble	30003198 <lcd_control_register+0x1c>
300031dc:	e3e03000 	mvn	r3, #0
300031e0:	e1a00003 	mov	r0, r3
300031e4:	e28bd000 	add	sp, fp, #0
300031e8:	e49db004 	pop	{fp}		; (ldr fp, [sp], #4)
300031ec:	e1a0f00e 	mov	pc, lr
300031f0:	3000779c 	mulcc	r0, ip, r7

300031f4 <lcd_control_init>:
300031f4:	e92d4800 	push	{fp, lr}
300031f8:	e28db004 	add	fp, sp, #4
300031fc:	e24dd008 	sub	sp, sp, #8
30003200:	e50b0008 	str	r0, [fp, #-8]
30003204:	e59f3038 	ldr	r3, [pc, #56]	; 30003244 <lcd_control_init+0x50>
30003208:	e5933000 	ldr	r3, [r3]
3000320c:	e3530000 	cmp	r3, #0
30003210:	1a000001 	bne	3000321c <lcd_control_init+0x28>
30003214:	e3e03000 	mvn	r3, #0
30003218:	ea000006 	b	30003238 <lcd_control_init+0x44>
3000321c:	e59f3020 	ldr	r3, [pc, #32]	; 30003244 <lcd_control_init+0x50>
30003220:	e5933000 	ldr	r3, [r3]
30003224:	e5933004 	ldr	r3, [r3, #4]
30003228:	e51b0008 	ldr	r0, [fp, #-8]
3000322c:	e1a0e00f 	mov	lr, pc
30003230:	e1a0f003 	mov	pc, r3
30003234:	e3a03000 	mov	r3, #0
30003238:	e1a00003 	mov	r0, r3
3000323c:	e24bd004 	sub	sp, fp, #4
30003240:	e8bd8800 	pop	{fp, pc}
30003244:	300077c4 	andcc	r7, r0, r4, asr #15

30003248 <lcd_control_enable>:
30003248:	e92d4800 	push	{fp, lr}
3000324c:	e28db004 	add	fp, sp, #4
30003250:	e59f3030 	ldr	r3, [pc, #48]	; 30003288 <lcd_control_enable+0x40>
30003254:	e5933000 	ldr	r3, [r3]
30003258:	e3530000 	cmp	r3, #0
3000325c:	1a000001 	bne	30003268 <lcd_control_enable+0x20>
30003260:	e3e03000 	mvn	r3, #0
30003264:	ea000005 	b	30003280 <lcd_control_enable+0x38>
30003268:	e59f3018 	ldr	r3, [pc, #24]	; 30003288 <lcd_control_enable+0x40>
3000326c:	e5933000 	ldr	r3, [r3]
30003270:	e593300c 	ldr	r3, [r3, #12]
30003274:	e1a0e00f 	mov	lr, pc
30003278:	e1a0f003 	mov	pc, r3
3000327c:	e3a03000 	mov	r3, #0
30003280:	e1a00003 	mov	r0, r3
30003284:	e8bd8800 	pop	{fp, pc}
30003288:	300077c4 	andcc	r7, r0, r4, asr #15

3000328c <lcd_control_disable>:
3000328c:	e92d4800 	push	{fp, lr}
30003290:	e28db004 	add	fp, sp, #4
30003294:	e59f3030 	ldr	r3, [pc, #48]	; 300032cc <lcd_control_disable+0x40>
30003298:	e5933000 	ldr	r3, [r3]
3000329c:	e3530000 	cmp	r3, #0
300032a0:	1a000001 	bne	300032ac <lcd_control_disable+0x20>
300032a4:	e3e03000 	mvn	r3, #0
300032a8:	ea000005 	b	300032c4 <lcd_control_disable+0x38>
300032ac:	e59f3018 	ldr	r3, [pc, #24]	; 300032cc <lcd_control_disable+0x40>
300032b0:	e5933000 	ldr	r3, [r3]
300032b4:	e5933008 	ldr	r3, [r3, #8]
300032b8:	e1a0e00f 	mov	lr, pc
300032bc:	e1a0f003 	mov	pc, r3
300032c0:	e3a03000 	mov	r3, #0
300032c4:	e1a00003 	mov	r0, r3
300032c8:	e8bd8800 	pop	{fp, pc}
300032cc:	300077c4 	andcc	r7, r0, r4, asr #15

300032d0 <lcd_test>:
300032d0:	e92d4800 	push	{fp, lr}
300032d4:	e28db004 	add	fp, sp, #4
300032d8:	e24dd010 	sub	sp, sp, #16
300032dc:	ebffff74 	bl	300030b4 <lcd_get_params>
300032e0:	e50b0008 	str	r0, [fp, #-8]
300032e4:	e3a00000 	mov	r0, #0
300032e8:	ebfffbbd 	bl	300021e4 <fb_clear>
300032ec:	e59f3080 	ldr	r3, [pc, #128]	; 30003374 <lcd_test+0xa4>
300032f0:	e59f2080 	ldr	r2, [pc, #128]	; 30003378 <lcd_test+0xa8>
300032f4:	e3a01014 	mov	r1, #20
300032f8:	e3a00014 	mov	r0, #20
300032fc:	ebfffb33 	bl	30001fd0 <fb_draw_str>
30003300:	eb00010a 	bl	30003730 <ts_calibration>
30003304:	e3a03000 	mov	r3, #0
30003308:	e50b300c 	str	r3, [fp, #-12]
3000330c:	e3a03000 	mov	r3, #0
30003310:	e50b3010 	str	r3, [fp, #-16]
30003314:	e24b2010 	sub	r2, fp, #16
30003318:	e24b300c 	sub	r3, fp, #12
3000331c:	e1a01002 	mov	r1, r2
30003320:	e1a00003 	mov	r0, r3
30003324:	eb000276 	bl	30003d04 <ts_read>
30003328:	e59f004c 	ldr	r0, [pc, #76]	; 3000337c <lcd_test+0xac>
3000332c:	ebfff772 	bl	300010fc <puts>
30003330:	e51b300c 	ldr	r3, [fp, #-12]
30003334:	e3530000 	cmp	r3, #0
30003338:	ba00000b 	blt	3000336c <lcd_test+0x9c>
3000333c:	e51b3010 	ldr	r3, [fp, #-16]
30003340:	e3530000 	cmp	r3, #0
30003344:	ba000008 	blt	3000336c <lcd_test+0x9c>
30003348:	e51b300c 	ldr	r3, [fp, #-12]
3000334c:	e1a00003 	mov	r0, r3
30003350:	e51b3010 	ldr	r3, [fp, #-16]
30003354:	e3a02b3e 	mov	r2, #63488	; 0xf800
30003358:	e1a01003 	mov	r1, r3
3000335c:	ebfffb54 	bl	300020b4 <fb_draw_pixel>
30003360:	e59f0018 	ldr	r0, [pc, #24]	; 30003380 <lcd_test+0xb0>
30003364:	ebfff764 	bl	300010fc <puts>
30003368:	eaffffe9 	b	30003314 <lcd_test+0x44>
3000336c:	e1a00000 	nop			; (mov r0, r0)
30003370:	eaffffe7 	b	30003314 <lcd_test+0x44>
30003374:	0000ffff 	strdeq	pc, [r0], -pc	; <UNPREDICTABLE>
30003378:	300073f0 	strdcc	r7, [r0], -r0
3000337c:	30007410 	andcc	r7, r0, r0, lsl r4
30003380:	30007420 	andcc	r7, r0, r0, lsr #8

30003384 <touch_screen_init>:
30003384:	e92d4800 	push	{fp, lr}
30003388:	e28db004 	add	fp, sp, #4
3000338c:	e3a03316 	mov	r3, #1476395008	; 0x58000000
30003390:	e5933000 	ldr	r3, [r3]
30003394:	e3a02316 	mov	r2, #1476395008	; 0x58000000
30003398:	e3c33dff 	bic	r3, r3, #16320	; 0x3fc0
3000339c:	e5823000 	str	r3, [r2]
300033a0:	e3a03316 	mov	r3, #1476395008	; 0x58000000
300033a4:	e5933000 	ldr	r3, [r3]
300033a8:	e3a02316 	mov	r2, #1476395008	; 0x58000000
300033ac:	e3833d41 	orr	r3, r3, #4160	; 0x1040
300033b0:	e5823000 	str	r3, [r2]
300033b4:	e3a03316 	mov	r3, #1476395008	; 0x58000000
300033b8:	e5933000 	ldr	r3, [r3]
300033bc:	e3a02316 	mov	r2, #1476395008	; 0x58000000
300033c0:	e3833901 	orr	r3, r3, #16384	; 0x4000
300033c4:	e5823000 	str	r3, [r2]
300033c8:	e3a03316 	mov	r3, #1476395008	; 0x58000000
300033cc:	e5933000 	ldr	r3, [r3]
300033d0:	e3a02316 	mov	r2, #1476395008	; 0x58000000
300033d4:	e3c33004 	bic	r3, r3, #4
300033d8:	e5823000 	str	r3, [r2]
300033dc:	e59f1038 	ldr	r1, [pc, #56]	; 3000341c <touch_screen_init+0x98>
300033e0:	e3a0001f 	mov	r0, #31
300033e4:	ebfff901 	bl	300017f0 <register_irq>
300033e8:	e59f3030 	ldr	r3, [pc, #48]	; 30003420 <touch_screen_init+0x9c>
300033ec:	e5933000 	ldr	r3, [r3]
300033f0:	e59f2028 	ldr	r2, [pc, #40]	; 30003420 <touch_screen_init+0x9c>
300033f4:	e3c33c06 	bic	r3, r3, #1536	; 0x600
300033f8:	e5823000 	str	r3, [r2]
300033fc:	e59f3020 	ldr	r3, [pc, #32]	; 30003424 <touch_screen_init+0xa0>
30003400:	e59f2020 	ldr	r2, [pc, #32]	; 30003428 <touch_screen_init+0xa4>
30003404:	e5832000 	str	r2, [r3]
30003408:	e59f001c 	ldr	r0, [pc, #28]	; 3000342c <touch_screen_init+0xa8>
3000340c:	ebfff96c 	bl	300019c4 <timer_register>
30003410:	eb000006 	bl	30003430 <enter_down_wait_interrupt>
30003414:	e1a00000 	nop			; (mov r0, r0)
30003418:	e8bd8800 	pop	{fp, pc}
3000341c:	300034ac 	andcc	r3, r0, ip, lsr #9
30003420:	4a00001c 	bmi	30003498 <enter_auto_measure+0x14>
30003424:	58000008 	stmdapl	r0, {r3}
30003428:	00001770 	andeq	r1, r0, r0, ror r7
3000342c:	30007690 	mulcc	r0, r0, r6

30003430 <enter_down_wait_interrupt>:
30003430:	e52db004 	push	{fp}		; (str fp, [sp, #-4]!)
30003434:	e28db000 	add	fp, sp, #0
30003438:	e59f3014 	ldr	r3, [pc, #20]	; 30003454 <enter_down_wait_interrupt+0x24>
3000343c:	e3a020d3 	mov	r2, #211	; 0xd3
30003440:	e5832000 	str	r2, [r3]
30003444:	e1a00000 	nop			; (mov r0, r0)
30003448:	e28bd000 	add	sp, fp, #0
3000344c:	e49db004 	pop	{fp}		; (ldr fp, [sp], #4)
30003450:	e1a0f00e 	mov	pc, lr
30003454:	58000004 	stmdapl	r0, {r2}

30003458 <enter_up_wait_interrupt>:
30003458:	e52db004 	push	{fp}		; (str fp, [sp, #-4]!)
3000345c:	e28db000 	add	fp, sp, #0
30003460:	e59f3014 	ldr	r3, [pc, #20]	; 3000347c <enter_up_wait_interrupt+0x24>
30003464:	e59f2014 	ldr	r2, [pc, #20]	; 30003480 <enter_up_wait_interrupt+0x28>
30003468:	e5832000 	str	r2, [r3]
3000346c:	e1a00000 	nop			; (mov r0, r0)
30003470:	e28bd000 	add	sp, fp, #0
30003474:	e49db004 	pop	{fp}		; (ldr fp, [sp], #4)
30003478:	e1a0f00e 	mov	pc, lr
3000347c:	58000004 	stmdapl	r0, {r2}
30003480:	000001d3 	ldrdeq	r0, [r0], -r3

30003484 <enter_auto_measure>:
30003484:	e52db004 	push	{fp}		; (str fp, [sp, #-4]!)
30003488:	e28db000 	add	fp, sp, #0
3000348c:	e59f3014 	ldr	r3, [pc, #20]	; 300034a8 <enter_auto_measure+0x24>
30003490:	e3a02004 	mov	r2, #4
30003494:	e5832000 	str	r2, [r3]
30003498:	e1a00000 	nop			; (mov r0, r0)
3000349c:	e28bd000 	add	sp, fp, #0
300034a0:	e49db004 	pop	{fp}		; (ldr fp, [sp], #4)
300034a4:	e1a0f00e 	mov	pc, lr
300034a8:	58000004 	stmdapl	r0, {r2}

300034ac <ADC_interrupt_handler>:
300034ac:	e92d4800 	push	{fp, lr}
300034b0:	e28db004 	add	fp, sp, #4
300034b4:	e59f30e8 	ldr	r3, [pc, #232]	; 300035a4 <ADC_interrupt_handler+0xf8>
300034b8:	e5933000 	ldr	r3, [r3]
300034bc:	e1a03523 	lsr	r3, r3, #10
300034c0:	e2033001 	and	r3, r3, #1
300034c4:	e3530000 	cmp	r3, #0
300034c8:	0a000010 	beq	30003510 <ADC_interrupt_handler+0x64>
300034cc:	e59f30d4 	ldr	r3, [pc, #212]	; 300035a8 <ADC_interrupt_handler+0xfc>
300034d0:	e5933000 	ldr	r3, [r3]
300034d4:	e1a03b03 	lsl	r3, r3, #22
300034d8:	e1a03b23 	lsr	r3, r3, #22
300034dc:	e59f20c8 	ldr	r2, [pc, #200]	; 300035ac <ADC_interrupt_handler+0x100>
300034e0:	e5823000 	str	r3, [r2]
300034e4:	e59f30c4 	ldr	r3, [pc, #196]	; 300035b0 <ADC_interrupt_handler+0x104>
300034e8:	e5933000 	ldr	r3, [r3]
300034ec:	e1a03b03 	lsl	r3, r3, #22
300034f0:	e1a03b23 	lsr	r3, r3, #22
300034f4:	e59f20b8 	ldr	r2, [pc, #184]	; 300035b4 <ADC_interrupt_handler+0x108>
300034f8:	e5823000 	str	r3, [r2]
300034fc:	e59f30b4 	ldr	r3, [pc, #180]	; 300035b8 <ADC_interrupt_handler+0x10c>
30003500:	e3a02001 	mov	r2, #1
30003504:	e5c32000 	strb	r2, [r3]
30003508:	ebffffd2 	bl	30003458 <enter_up_wait_interrupt>
3000350c:	ea00001d 	b	30003588 <ADC_interrupt_handler+0xdc>
30003510:	e59f308c 	ldr	r3, [pc, #140]	; 300035a4 <ADC_interrupt_handler+0xf8>
30003514:	e5933000 	ldr	r3, [r3]
30003518:	e1a034a3 	lsr	r3, r3, #9
3000351c:	e2033001 	and	r3, r3, #1
30003520:	e3530000 	cmp	r3, #0
30003524:	0a000017 	beq	30003588 <ADC_interrupt_handler+0xdc>
30003528:	e59f3078 	ldr	r3, [pc, #120]	; 300035a8 <ADC_interrupt_handler+0xfc>
3000352c:	e5933000 	ldr	r3, [r3]
30003530:	e1a037a3 	lsr	r3, r3, #15
30003534:	e2033001 	and	r3, r3, #1
30003538:	e3530000 	cmp	r3, #0
3000353c:	0a000009 	beq	30003568 <ADC_interrupt_handler+0xbc>
30003540:	e59f3074 	ldr	r3, [pc, #116]	; 300035bc <ADC_interrupt_handler+0x110>
30003544:	e3a02000 	mov	r2, #0
30003548:	e5832000 	str	r2, [r3]
3000354c:	e59f306c 	ldr	r3, [pc, #108]	; 300035c0 <ADC_interrupt_handler+0x114>
30003550:	e3a02001 	mov	r2, #1
30003554:	e5c32000 	strb	r2, [r3]
30003558:	ebffffb4 	bl	30003430 <enter_down_wait_interrupt>
3000355c:	e59f0060 	ldr	r0, [pc, #96]	; 300035c4 <ADC_interrupt_handler+0x118>
30003560:	ebfff6e5 	bl	300010fc <puts>
30003564:	ea000007 	b	30003588 <ADC_interrupt_handler+0xdc>
30003568:	e59f0058 	ldr	r0, [pc, #88]	; 300035c8 <ADC_interrupt_handler+0x11c>
3000356c:	ebfff6e2 	bl	300010fc <puts>
30003570:	e59f3044 	ldr	r3, [pc, #68]	; 300035bc <ADC_interrupt_handler+0x110>
30003574:	e3a02001 	mov	r2, #1
30003578:	e5832000 	str	r2, [r3]
3000357c:	e59f303c 	ldr	r3, [pc, #60]	; 300035c0 <ADC_interrupt_handler+0x114>
30003580:	e3a02000 	mov	r2, #0
30003584:	e5c32000 	strb	r2, [r3]
30003588:	e59f3014 	ldr	r3, [pc, #20]	; 300035a4 <ADC_interrupt_handler+0xf8>
3000358c:	e5933000 	ldr	r3, [r3]
30003590:	e59f200c 	ldr	r2, [pc, #12]	; 300035a4 <ADC_interrupt_handler+0xf8>
30003594:	e3833c06 	orr	r3, r3, #1536	; 0x600
30003598:	e5823000 	str	r3, [r2]
3000359c:	e1a00000 	nop			; (mov r0, r0)
300035a0:	e8bd8800 	pop	{fp, pc}
300035a4:	4a000018 	bmi	3000360c <ts_timer_callback+0x40>
300035a8:	5800000c 	stmdapl	r0, {r2, r3}
300035ac:	300077cc 	andcc	r7, r0, ip, asr #15
300035b0:	58000010 	stmdapl	r0, {r4}
300035b4:	300077d0 	ldrdcc	r7, [r0], -r0
300035b8:	300077d4 	ldrdcc	r7, [r0], -r4
300035bc:	300077c8 	andcc	r7, r0, r8, asr #15
300035c0:	3000768c 	andcc	r7, r0, ip, lsl #13
300035c4:	30007430 	andcc	r7, r0, r0, lsr r4
300035c8:	30007440 	andcc	r7, r0, r0, asr #8

300035cc <ts_timer_callback>:
300035cc:	e92d4800 	push	{fp, lr}
300035d0:	e28db004 	add	fp, sp, #4
300035d4:	e59f3074 	ldr	r3, [pc, #116]	; 30003650 <ts_timer_callback+0x84>
300035d8:	e5933000 	ldr	r3, [r3]
300035dc:	e3530000 	cmp	r3, #0
300035e0:	0a000018 	beq	30003648 <ts_timer_callback+0x7c>
300035e4:	e59f3068 	ldr	r3, [pc, #104]	; 30003654 <ts_timer_callback+0x88>
300035e8:	e5933000 	ldr	r3, [r3]
300035ec:	e1a037a3 	lsr	r3, r3, #15
300035f0:	e2033001 	and	r3, r3, #1
300035f4:	e3530000 	cmp	r3, #0
300035f8:	1a000009 	bne	30003624 <ts_timer_callback+0x58>
300035fc:	ebffffa0 	bl	30003484 <enter_auto_measure>
30003600:	e3a03316 	mov	r3, #1476395008	; 0x58000000
30003604:	e5933000 	ldr	r3, [r3]
30003608:	e3a02316 	mov	r2, #1476395008	; 0x58000000
3000360c:	e3833001 	orr	r3, r3, #1
30003610:	e5823000 	str	r3, [r2]
30003614:	e59f303c 	ldr	r3, [pc, #60]	; 30003658 <ts_timer_callback+0x8c>
30003618:	e3a02000 	mov	r2, #0
3000361c:	e5c32000 	strb	r2, [r3]
30003620:	ea000008 	b	30003648 <ts_timer_callback+0x7c>
30003624:	e59f0030 	ldr	r0, [pc, #48]	; 3000365c <ts_timer_callback+0x90>
30003628:	ebfff6b3 	bl	300010fc <puts>
3000362c:	e59f301c 	ldr	r3, [pc, #28]	; 30003650 <ts_timer_callback+0x84>
30003630:	e3a02000 	mov	r2, #0
30003634:	e5832000 	str	r2, [r3]
30003638:	e59f3018 	ldr	r3, [pc, #24]	; 30003658 <ts_timer_callback+0x8c>
3000363c:	e3a02001 	mov	r2, #1
30003640:	e5c32000 	strb	r2, [r3]
30003644:	ebffff79 	bl	30003430 <enter_down_wait_interrupt>
30003648:	e1a00000 	nop			; (mov r0, r0)
3000364c:	e8bd8800 	pop	{fp, pc}
30003650:	300077c8 	andcc	r7, r0, r8, asr #15
30003654:	5800000c 	stmdapl	r0, {r2, r3}
30003658:	3000768c 	andcc	r7, r0, ip, lsl #13
3000365c:	3000744c 	andcc	r7, r0, ip, asr #8

30003660 <ts_check_state>:
30003660:	e52db004 	push	{fp}		; (str fp, [sp, #-4]!)
30003664:	e28db000 	add	fp, sp, #0
30003668:	e59f3010 	ldr	r3, [pc, #16]	; 30003680 <ts_check_state+0x20>
3000366c:	e5d33000 	ldrb	r3, [r3]
30003670:	e1a00003 	mov	r0, r3
30003674:	e28bd000 	add	sp, fp, #0
30003678:	e49db004 	pop	{fp}		; (ldr fp, [sp], #4)
3000367c:	e1a0f00e 	mov	pc, lr
30003680:	3000768c 	andcc	r7, r0, ip, lsl #13

30003684 <ts_get_xy_analog_value>:
30003684:	e92d4800 	push	{fp, lr}
30003688:	e28db004 	add	fp, sp, #4
3000368c:	e24dd008 	sub	sp, sp, #8
30003690:	e50b0008 	str	r0, [fp, #-8]
30003694:	e50b100c 	str	r1, [fp, #-12]
30003698:	ebfffff0 	bl	30003660 <ts_check_state>
3000369c:	e1a03000 	mov	r3, r0
300036a0:	e3530000 	cmp	r3, #0
300036a4:	0a000006 	beq	300036c4 <ts_get_xy_analog_value+0x40>
300036a8:	e51b3008 	ldr	r3, [fp, #-8]
300036ac:	e3e02000 	mvn	r2, #0
300036b0:	e5832000 	str	r2, [r3]
300036b4:	e51b300c 	ldr	r3, [fp, #-12]
300036b8:	e3e02000 	mvn	r2, #0
300036bc:	e5832000 	str	r2, [r3]
300036c0:	ea000015 	b	3000371c <ts_get_xy_analog_value+0x98>
300036c4:	e59f3058 	ldr	r3, [pc, #88]	; 30003724 <ts_get_xy_analog_value+0xa0>
300036c8:	e5d33000 	ldrb	r3, [r3]
300036cc:	e3530000 	cmp	r3, #0
300036d0:	0a00000b 	beq	30003704 <ts_get_xy_analog_value+0x80>
300036d4:	e59f304c 	ldr	r3, [pc, #76]	; 30003728 <ts_get_xy_analog_value+0xa4>
300036d8:	e5932000 	ldr	r2, [r3]
300036dc:	e51b3008 	ldr	r3, [fp, #-8]
300036e0:	e5832000 	str	r2, [r3]
300036e4:	e59f3040 	ldr	r3, [pc, #64]	; 3000372c <ts_get_xy_analog_value+0xa8>
300036e8:	e5932000 	ldr	r2, [r3]
300036ec:	e51b300c 	ldr	r3, [fp, #-12]
300036f0:	e5832000 	str	r2, [r3]
300036f4:	e59f3028 	ldr	r3, [pc, #40]	; 30003724 <ts_get_xy_analog_value+0xa0>
300036f8:	e3a02000 	mov	r2, #0
300036fc:	e5c32000 	strb	r2, [r3]
30003700:	ea000005 	b	3000371c <ts_get_xy_analog_value+0x98>
30003704:	e51b3008 	ldr	r3, [fp, #-8]
30003708:	e3e02001 	mvn	r2, #1
3000370c:	e5832000 	str	r2, [r3]
30003710:	e51b300c 	ldr	r3, [fp, #-12]
30003714:	e3e02001 	mvn	r2, #1
30003718:	e5832000 	str	r2, [r3]
3000371c:	e24bd004 	sub	sp, fp, #4
30003720:	e8bd8800 	pop	{fp, pc}
30003724:	300077d4 	ldrdcc	r7, [r0], -r4
30003728:	300077cc 	andcc	r7, r0, ip, asr #15
3000372c:	300077d0 	ldrdcc	r7, [r0], -r0

30003730 <ts_calibration>:
30003730:	e92d4830 	push	{r4, r5, fp, lr}
30003734:	e28db00c 	add	fp, sp, #12
30003738:	e24dd060 	sub	sp, sp, #96	; 0x60
3000373c:	ebfffe5c 	bl	300030b4 <lcd_get_params>
30003740:	e50b0010 	str	r0, [fp, #-16]
30003744:	e3a00000 	mov	r0, #0
30003748:	ebfffaa5 	bl	300021e4 <fb_clear>
3000374c:	e59f3368 	ldr	r3, [pc, #872]	; 30003abc <ts_calibration+0x38c>
30003750:	e59f2368 	ldr	r2, [pc, #872]	; 30003ac0 <ts_calibration+0x390>
30003754:	e3a01046 	mov	r1, #70	; 0x46
30003758:	e3a00046 	mov	r0, #70	; 0x46
3000375c:	ebfffa1b 	bl	30001fd0 <fb_draw_str>
30003760:	e24b304c 	sub	r3, fp, #76	; 0x4c
30003764:	e24b2048 	sub	r2, fp, #72	; 0x48
30003768:	e3a01032 	mov	r1, #50	; 0x32
3000376c:	e3a00032 	mov	r0, #50	; 0x32
30003770:	eb000108 	bl	30003b98 <ts_calibration_point>
30003774:	e51b3010 	ldr	r3, [fp, #-16]
30003778:	e5933024 	ldr	r3, [r3, #36]	; 0x24
3000377c:	e2430032 	sub	r0, r3, #50	; 0x32
30003780:	e24b3054 	sub	r3, fp, #84	; 0x54
30003784:	e24b2050 	sub	r2, fp, #80	; 0x50
30003788:	e3a01032 	mov	r1, #50	; 0x32
3000378c:	eb000101 	bl	30003b98 <ts_calibration_point>
30003790:	e51b3010 	ldr	r3, [fp, #-16]
30003794:	e5933024 	ldr	r3, [r3, #36]	; 0x24
30003798:	e2430032 	sub	r0, r3, #50	; 0x32
3000379c:	e51b3010 	ldr	r3, [fp, #-16]
300037a0:	e5933028 	ldr	r3, [r3, #40]	; 0x28
300037a4:	e2431032 	sub	r1, r3, #50	; 0x32
300037a8:	e24b305c 	sub	r3, fp, #92	; 0x5c
300037ac:	e24b2058 	sub	r2, fp, #88	; 0x58
300037b0:	eb0000f8 	bl	30003b98 <ts_calibration_point>
300037b4:	e51b3010 	ldr	r3, [fp, #-16]
300037b8:	e5933028 	ldr	r3, [r3, #40]	; 0x28
300037bc:	e2431032 	sub	r1, r3, #50	; 0x32
300037c0:	e24b3064 	sub	r3, fp, #100	; 0x64
300037c4:	e24b2060 	sub	r2, fp, #96	; 0x60
300037c8:	e3a00032 	mov	r0, #50	; 0x32
300037cc:	eb0000f1 	bl	30003b98 <ts_calibration_point>
300037d0:	e51b3010 	ldr	r3, [fp, #-16]
300037d4:	e5933024 	ldr	r3, [r3, #36]	; 0x24
300037d8:	e1a000a3 	lsr	r0, r3, #1
300037dc:	e51b3010 	ldr	r3, [fp, #-16]
300037e0:	e5933028 	ldr	r3, [r3, #40]	; 0x28
300037e4:	e1a010a3 	lsr	r1, r3, #1
300037e8:	e24b306c 	sub	r3, fp, #108	; 0x6c
300037ec:	e24b2068 	sub	r2, fp, #104	; 0x68
300037f0:	eb0000e8 	bl	30003b98 <ts_calibration_point>
300037f4:	e51b0048 	ldr	r0, [fp, #-72]	; 0xffffffb8
300037f8:	e51b104c 	ldr	r1, [fp, #-76]	; 0xffffffb4
300037fc:	e51b2050 	ldr	r2, [fp, #-80]	; 0xffffffb0
30003800:	e51b3054 	ldr	r3, [fp, #-84]	; 0xffffffac
30003804:	eb0000b6 	bl	30003ae4 <ts_is_xy_swap>
30003808:	e1a03000 	mov	r3, r0
3000380c:	e20320ff 	and	r2, r3, #255	; 0xff
30003810:	e59f32ac 	ldr	r3, [pc, #684]	; 30003ac4 <ts_calibration+0x394>
30003814:	e5c32000 	strb	r2, [r3]
30003818:	e59f32a4 	ldr	r3, [pc, #676]	; 30003ac4 <ts_calibration+0x394>
3000381c:	e5d33000 	ldrb	r3, [r3]
30003820:	e3530000 	cmp	r3, #0
30003824:	0a000018 	beq	3000388c <ts_calibration+0x15c>
30003828:	e24b204c 	sub	r2, fp, #76	; 0x4c
3000382c:	e24b3048 	sub	r3, fp, #72	; 0x48
30003830:	e1a01002 	mov	r1, r2
30003834:	e1a00003 	mov	r0, r3
30003838:	eb0000c3 	bl	30003b4c <ts_xy_swap>
3000383c:	e24b2054 	sub	r2, fp, #84	; 0x54
30003840:	e24b3050 	sub	r3, fp, #80	; 0x50
30003844:	e1a01002 	mov	r1, r2
30003848:	e1a00003 	mov	r0, r3
3000384c:	eb0000be 	bl	30003b4c <ts_xy_swap>
30003850:	e24b205c 	sub	r2, fp, #92	; 0x5c
30003854:	e24b3058 	sub	r3, fp, #88	; 0x58
30003858:	e1a01002 	mov	r1, r2
3000385c:	e1a00003 	mov	r0, r3
30003860:	eb0000b9 	bl	30003b4c <ts_xy_swap>
30003864:	e24b2064 	sub	r2, fp, #100	; 0x64
30003868:	e24b3060 	sub	r3, fp, #96	; 0x60
3000386c:	e1a01002 	mov	r1, r2
30003870:	e1a00003 	mov	r0, r3
30003874:	eb0000b4 	bl	30003b4c <ts_xy_swap>
30003878:	e24b206c 	sub	r2, fp, #108	; 0x6c
3000387c:	e24b3068 	sub	r3, fp, #104	; 0x68
30003880:	e1a01002 	mov	r1, r2
30003884:	e1a00003 	mov	r0, r3
30003888:	eb0000af 	bl	30003b4c <ts_xy_swap>
3000388c:	e51b2050 	ldr	r2, [fp, #-80]	; 0xffffffb0
30003890:	e51b3048 	ldr	r3, [fp, #-72]	; 0xffffffb8
30003894:	e0423003 	sub	r3, r2, r3
30003898:	e1a00003 	mov	r0, r3
3000389c:	eb0008ad 	bl	30005b58 <__aeabi_i2d>
300038a0:	e1a02000 	mov	r2, r0
300038a4:	e1a03001 	mov	r3, r1
300038a8:	e50b201c 	str	r2, [fp, #-28]	; 0xffffffe4
300038ac:	e50b3018 	str	r3, [fp, #-24]	; 0xffffffe8
300038b0:	e51b2058 	ldr	r2, [fp, #-88]	; 0xffffffa8
300038b4:	e51b3060 	ldr	r3, [fp, #-96]	; 0xffffffa0
300038b8:	e0423003 	sub	r3, r2, r3
300038bc:	e1a00003 	mov	r0, r3
300038c0:	eb0008a4 	bl	30005b58 <__aeabi_i2d>
300038c4:	e1a02000 	mov	r2, r0
300038c8:	e1a03001 	mov	r3, r1
300038cc:	e50b2024 	str	r2, [fp, #-36]	; 0xffffffdc
300038d0:	e50b3020 	str	r3, [fp, #-32]	; 0xffffffe0
300038d4:	e51b3010 	ldr	r3, [fp, #-16]
300038d8:	e5933024 	ldr	r3, [r3, #36]	; 0x24
300038dc:	e2433064 	sub	r3, r3, #100	; 0x64
300038e0:	e1a00003 	mov	r0, r3
300038e4:	eb000892 	bl	30005b34 <__aeabi_ui2d>
300038e8:	e1a02000 	mov	r2, r0
300038ec:	e1a03001 	mov	r3, r1
300038f0:	e50b202c 	str	r2, [fp, #-44]	; 0xffffffd4
300038f4:	e50b3028 	str	r3, [fp, #-40]	; 0xffffffd8
300038f8:	e51b2064 	ldr	r2, [fp, #-100]	; 0xffffff9c
300038fc:	e51b304c 	ldr	r3, [fp, #-76]	; 0xffffffb4
30003900:	e0423003 	sub	r3, r2, r3
30003904:	e1a00003 	mov	r0, r3
30003908:	eb000892 	bl	30005b58 <__aeabi_i2d>
3000390c:	e1a02000 	mov	r2, r0
30003910:	e1a03001 	mov	r3, r1
30003914:	e50b2034 	str	r2, [fp, #-52]	; 0xffffffcc
30003918:	e50b3030 	str	r3, [fp, #-48]	; 0xffffffd0
3000391c:	e51b205c 	ldr	r2, [fp, #-92]	; 0xffffffa4
30003920:	e51b3054 	ldr	r3, [fp, #-84]	; 0xffffffac
30003924:	e0423003 	sub	r3, r2, r3
30003928:	e1a00003 	mov	r0, r3
3000392c:	eb000889 	bl	30005b58 <__aeabi_i2d>
30003930:	e1a02000 	mov	r2, r0
30003934:	e1a03001 	mov	r3, r1
30003938:	e50b203c 	str	r2, [fp, #-60]	; 0xffffffc4
3000393c:	e50b3038 	str	r3, [fp, #-56]	; 0xffffffc8
30003940:	e51b3010 	ldr	r3, [fp, #-16]
30003944:	e5933028 	ldr	r3, [r3, #40]	; 0x28
30003948:	e2433064 	sub	r3, r3, #100	; 0x64
3000394c:	e1a00003 	mov	r0, r3
30003950:	eb000877 	bl	30005b34 <__aeabi_ui2d>
30003954:	e1a02000 	mov	r2, r0
30003958:	e1a03001 	mov	r3, r1
3000395c:	e50b2044 	str	r2, [fp, #-68]	; 0xffffffbc
30003960:	e50b3040 	str	r3, [fp, #-64]	; 0xffffffc0
30003964:	e24b102c 	sub	r1, fp, #44	; 0x2c
30003968:	e8910003 	ldm	r1, {r0, r1}
3000396c:	e1a02000 	mov	r2, r0
30003970:	e1a03001 	mov	r3, r1
30003974:	eb0007aa 	bl	30005824 <__adddf3>
30003978:	e1a02000 	mov	r2, r0
3000397c:	e1a03001 	mov	r3, r1
30003980:	e1a04002 	mov	r4, r2
30003984:	e1a05003 	mov	r5, r3
30003988:	e24b3024 	sub	r3, fp, #36	; 0x24
3000398c:	e893000c 	ldm	r3, {r2, r3}
30003990:	e24b101c 	sub	r1, fp, #28
30003994:	e8910003 	ldm	r1, {r0, r1}
30003998:	eb0007a1 	bl	30005824 <__adddf3>
3000399c:	e1a02000 	mov	r2, r0
300039a0:	e1a03001 	mov	r3, r1
300039a4:	e1a00004 	mov	r0, r4
300039a8:	e1a01005 	mov	r1, r5
300039ac:	eb000946 	bl	30005ecc <__aeabi_ddiv>
300039b0:	e1a02000 	mov	r2, r0
300039b4:	e1a03001 	mov	r3, r1
300039b8:	e59f1108 	ldr	r1, [pc, #264]	; 30003ac8 <ts_calibration+0x398>
300039bc:	e881000c 	stm	r1, {r2, r3}
300039c0:	e24b1044 	sub	r1, fp, #68	; 0x44
300039c4:	e8910003 	ldm	r1, {r0, r1}
300039c8:	e1a02000 	mov	r2, r0
300039cc:	e1a03001 	mov	r3, r1
300039d0:	eb000793 	bl	30005824 <__adddf3>
300039d4:	e1a02000 	mov	r2, r0
300039d8:	e1a03001 	mov	r3, r1
300039dc:	e1a04002 	mov	r4, r2
300039e0:	e1a05003 	mov	r5, r3
300039e4:	e24b303c 	sub	r3, fp, #60	; 0x3c
300039e8:	e893000c 	ldm	r3, {r2, r3}
300039ec:	e24b1034 	sub	r1, fp, #52	; 0x34
300039f0:	e8910003 	ldm	r1, {r0, r1}
300039f4:	eb00078a 	bl	30005824 <__adddf3>
300039f8:	e1a02000 	mov	r2, r0
300039fc:	e1a03001 	mov	r3, r1
30003a00:	e1a00004 	mov	r0, r4
30003a04:	e1a01005 	mov	r1, r5
30003a08:	eb00092f 	bl	30005ecc <__aeabi_ddiv>
30003a0c:	e1a02000 	mov	r2, r0
30003a10:	e1a03001 	mov	r3, r1
30003a14:	e59f10b0 	ldr	r1, [pc, #176]	; 30003acc <ts_calibration+0x39c>
30003a18:	e881000c 	stm	r1, {r2, r3}
30003a1c:	e51b3068 	ldr	r3, [fp, #-104]	; 0xffffff98
30003a20:	e1a00003 	mov	r0, r3
30003a24:	eb00084b 	bl	30005b58 <__aeabi_i2d>
30003a28:	e1a02000 	mov	r2, r0
30003a2c:	e1a03001 	mov	r3, r1
30003a30:	e59f1098 	ldr	r1, [pc, #152]	; 30003ad0 <ts_calibration+0x3a0>
30003a34:	e881000c 	stm	r1, {r2, r3}
30003a38:	e51b306c 	ldr	r3, [fp, #-108]	; 0xffffff94
30003a3c:	e1a00003 	mov	r0, r3
30003a40:	eb000844 	bl	30005b58 <__aeabi_i2d>
30003a44:	e1a02000 	mov	r2, r0
30003a48:	e1a03001 	mov	r3, r1
30003a4c:	e59f1080 	ldr	r1, [pc, #128]	; 30003ad4 <ts_calibration+0x3a4>
30003a50:	e881000c 	stm	r1, {r2, r3}
30003a54:	e51b3010 	ldr	r3, [fp, #-16]
30003a58:	e5933024 	ldr	r3, [r3, #36]	; 0x24
30003a5c:	e1a030a3 	lsr	r3, r3, #1
30003a60:	e1a00003 	mov	r0, r3
30003a64:	eb000832 	bl	30005b34 <__aeabi_ui2d>
30003a68:	e1a02000 	mov	r2, r0
30003a6c:	e1a03001 	mov	r3, r1
30003a70:	e59f1060 	ldr	r1, [pc, #96]	; 30003ad8 <ts_calibration+0x3a8>
30003a74:	e881000c 	stm	r1, {r2, r3}
30003a78:	e51b3010 	ldr	r3, [fp, #-16]
30003a7c:	e5933028 	ldr	r3, [r3, #40]	; 0x28
30003a80:	e1a030a3 	lsr	r3, r3, #1
30003a84:	e1a00003 	mov	r0, r3
30003a88:	eb000829 	bl	30005b34 <__aeabi_ui2d>
30003a8c:	e1a02000 	mov	r2, r0
30003a90:	e1a03001 	mov	r3, r1
30003a94:	e59f1040 	ldr	r1, [pc, #64]	; 30003adc <ts_calibration+0x3ac>
30003a98:	e881000c 	stm	r1, {r2, r3}
30003a9c:	e59f3018 	ldr	r3, [pc, #24]	; 30003abc <ts_calibration+0x38c>
30003aa0:	e59f2038 	ldr	r2, [pc, #56]	; 30003ae0 <ts_calibration+0x3b0>
30003aa4:	e3a01046 	mov	r1, #70	; 0x46
30003aa8:	e3a00046 	mov	r0, #70	; 0x46
30003aac:	ebfff947 	bl	30001fd0 <fb_draw_str>
30003ab0:	e1a00000 	nop			; (mov r0, r0)
30003ab4:	e24bd00c 	sub	sp, fp, #12
30003ab8:	e8bd8830 	pop	{r4, r5, fp, pc}
30003abc:	0000ffff 	strdeq	pc, [r0], -pc	; <UNPREDICTABLE>
30003ac0:	3000745c 	andcc	r7, r0, ip, asr r4
30003ac4:	30007808 	andcc	r7, r0, r8, lsl #16
30003ac8:	300077d8 	ldrdcc	r7, [r0], -r8
30003acc:	300077e0 	andcc	r7, r0, r0, ror #15
30003ad0:	300077e8 	andcc	r7, r0, r8, ror #15
30003ad4:	300077f0 	strdcc	r7, [r0], -r0
30003ad8:	300077f8 	strdcc	r7, [r0], -r8
30003adc:	30007800 	andcc	r7, r0, r0, lsl #16
30003ae0:	30007478 	andcc	r7, r0, r8, ror r4

30003ae4 <ts_is_xy_swap>:
30003ae4:	e52db004 	push	{fp}		; (str fp, [sp, #-4]!)
30003ae8:	e28db000 	add	fp, sp, #0
30003aec:	e24dd01c 	sub	sp, sp, #28
30003af0:	e50b0010 	str	r0, [fp, #-16]
30003af4:	e50b1014 	str	r1, [fp, #-20]	; 0xffffffec
30003af8:	e50b2018 	str	r2, [fp, #-24]	; 0xffffffe8
30003afc:	e50b301c 	str	r3, [fp, #-28]	; 0xffffffe4
30003b00:	e51b2018 	ldr	r2, [fp, #-24]	; 0xffffffe8
30003b04:	e51b3010 	ldr	r3, [fp, #-16]
30003b08:	e0423003 	sub	r3, r2, r3
30003b0c:	e50b3008 	str	r3, [fp, #-8]
30003b10:	e51b201c 	ldr	r2, [fp, #-28]	; 0xffffffe4
30003b14:	e51b3014 	ldr	r3, [fp, #-20]	; 0xffffffec
30003b18:	e0423003 	sub	r3, r2, r3
30003b1c:	e50b300c 	str	r3, [fp, #-12]
30003b20:	e51b2008 	ldr	r2, [fp, #-8]
30003b24:	e51b300c 	ldr	r3, [fp, #-12]
30003b28:	e1520003 	cmp	r2, r3
30003b2c:	da000001 	ble	30003b38 <ts_is_xy_swap+0x54>
30003b30:	e3a03000 	mov	r3, #0
30003b34:	ea000000 	b	30003b3c <ts_is_xy_swap+0x58>
30003b38:	e3a03001 	mov	r3, #1
30003b3c:	e1a00003 	mov	r0, r3
30003b40:	e28bd000 	add	sp, fp, #0
30003b44:	e49db004 	pop	{fp}		; (ldr fp, [sp], #4)
30003b48:	e1a0f00e 	mov	pc, lr

30003b4c <ts_xy_swap>:
30003b4c:	e52db004 	push	{fp}		; (str fp, [sp, #-4]!)
30003b50:	e28db000 	add	fp, sp, #0
30003b54:	e24dd014 	sub	sp, sp, #20
30003b58:	e50b0010 	str	r0, [fp, #-16]
30003b5c:	e50b1014 	str	r1, [fp, #-20]	; 0xffffffec
30003b60:	e51b3010 	ldr	r3, [fp, #-16]
30003b64:	e5933000 	ldr	r3, [r3]
30003b68:	e50b3008 	str	r3, [fp, #-8]
30003b6c:	e51b3014 	ldr	r3, [fp, #-20]	; 0xffffffec
30003b70:	e5932000 	ldr	r2, [r3]
30003b74:	e51b3010 	ldr	r3, [fp, #-16]
30003b78:	e5832000 	str	r2, [r3]
30003b7c:	e51b3014 	ldr	r3, [fp, #-20]	; 0xffffffec
30003b80:	e51b2008 	ldr	r2, [fp, #-8]
30003b84:	e5832000 	str	r2, [r3]
30003b88:	e1a00000 	nop			; (mov r0, r0)
30003b8c:	e28bd000 	add	sp, fp, #0
30003b90:	e49db004 	pop	{fp}		; (ldr fp, [sp], #4)
30003b94:	e1a0f00e 	mov	pc, lr

30003b98 <ts_calibration_point>:
30003b98:	e92d4800 	push	{fp, lr}
30003b9c:	e28db004 	add	fp, sp, #4
30003ba0:	e24dd028 	sub	sp, sp, #40	; 0x28
30003ba4:	e50b0020 	str	r0, [fp, #-32]	; 0xffffffe0
30003ba8:	e50b1024 	str	r1, [fp, #-36]	; 0xffffffdc
30003bac:	e50b2028 	str	r2, [fp, #-40]	; 0xffffffd8
30003bb0:	e50b302c 	str	r3, [fp, #-44]	; 0xffffffd4
30003bb4:	e3a03000 	mov	r3, #0
30003bb8:	e50b3008 	str	r3, [fp, #-8]
30003bbc:	e3a03000 	mov	r3, #0
30003bc0:	e50b300c 	str	r3, [fp, #-12]
30003bc4:	e3a03000 	mov	r3, #0
30003bc8:	e50b3010 	str	r3, [fp, #-16]
30003bcc:	e3a03000 	mov	r3, #0
30003bd0:	e50b3014 	str	r3, [fp, #-20]	; 0xffffffec
30003bd4:	e3a03000 	mov	r3, #0
30003bd8:	e50b3018 	str	r3, [fp, #-24]	; 0xffffffe8
30003bdc:	e59f3114 	ldr	r3, [pc, #276]	; 30003cf8 <ts_calibration_point+0x160>
30003be0:	e3a0200a 	mov	r2, #10
30003be4:	e51b1024 	ldr	r1, [fp, #-36]	; 0xffffffdc
30003be8:	e51b0020 	ldr	r0, [fp, #-32]	; 0xffffffe0
30003bec:	ebfffbc5 	bl	30002b08 <fb_draw_cross>
30003bf0:	e1a00000 	nop			; (mov r0, r0)
30003bf4:	ebfffe99 	bl	30003660 <ts_check_state>
30003bf8:	e1a03000 	mov	r3, r0
30003bfc:	e3530000 	cmp	r3, #0
30003c00:	1afffffb 	bne	30003bf4 <ts_calibration_point+0x5c>
30003c04:	ea00001c 	b	30003c7c <ts_calibration_point+0xe4>
30003c08:	e24b2018 	sub	r2, fp, #24
30003c0c:	e24b3014 	sub	r3, fp, #20
30003c10:	e1a01002 	mov	r1, r2
30003c14:	e1a00003 	mov	r0, r3
30003c18:	ebfffe99 	bl	30003684 <ts_get_xy_analog_value>
30003c1c:	e51b3014 	ldr	r3, [fp, #-20]	; 0xffffffec
30003c20:	e3730001 	cmn	r3, #1
30003c24:	0a000018 	beq	30003c8c <ts_calibration_point+0xf4>
30003c28:	e51b3018 	ldr	r3, [fp, #-24]	; 0xffffffe8
30003c2c:	e3730001 	cmn	r3, #1
30003c30:	0a000015 	beq	30003c8c <ts_calibration_point+0xf4>
30003c34:	e51b3014 	ldr	r3, [fp, #-20]	; 0xffffffec
30003c38:	e3730002 	cmn	r3, #2
30003c3c:	0a00000e 	beq	30003c7c <ts_calibration_point+0xe4>
30003c40:	e51b3018 	ldr	r3, [fp, #-24]	; 0xffffffe8
30003c44:	e3730002 	cmn	r3, #2
30003c48:	1a000000 	bne	30003c50 <ts_calibration_point+0xb8>
30003c4c:	ea00000a 	b	30003c7c <ts_calibration_point+0xe4>
30003c50:	e51b3014 	ldr	r3, [fp, #-20]	; 0xffffffec
30003c54:	e51b200c 	ldr	r2, [fp, #-12]
30003c58:	e0823003 	add	r3, r2, r3
30003c5c:	e50b300c 	str	r3, [fp, #-12]
30003c60:	e51b3018 	ldr	r3, [fp, #-24]	; 0xffffffe8
30003c64:	e51b2010 	ldr	r2, [fp, #-16]
30003c68:	e0823003 	add	r3, r2, r3
30003c6c:	e50b3010 	str	r3, [fp, #-16]
30003c70:	e51b3008 	ldr	r3, [fp, #-8]
30003c74:	e2833001 	add	r3, r3, #1
30003c78:	e50b3008 	str	r3, [fp, #-8]
30003c7c:	ebfffe77 	bl	30003660 <ts_check_state>
30003c80:	e1a03000 	mov	r3, r0
30003c84:	e3530000 	cmp	r3, #0
30003c88:	0affffde 	beq	30003c08 <ts_calibration_point+0x70>
30003c8c:	e51b1008 	ldr	r1, [fp, #-8]
30003c90:	e51b000c 	ldr	r0, [fp, #-12]
30003c94:	eb00068c 	bl	300056cc <__divsi3>
30003c98:	e1a03000 	mov	r3, r0
30003c9c:	e1a02003 	mov	r2, r3
30003ca0:	e51b3028 	ldr	r3, [fp, #-40]	; 0xffffffd8
30003ca4:	e5832000 	str	r2, [r3]
30003ca8:	e51b1008 	ldr	r1, [fp, #-8]
30003cac:	e51b0010 	ldr	r0, [fp, #-16]
30003cb0:	eb000685 	bl	300056cc <__divsi3>
30003cb4:	e1a03000 	mov	r3, r0
30003cb8:	e1a02003 	mov	r2, r3
30003cbc:	e51b302c 	ldr	r3, [fp, #-44]	; 0xffffffd4
30003cc0:	e5832000 	str	r2, [r3]
30003cc4:	e51b3028 	ldr	r3, [fp, #-40]	; 0xffffffd8
30003cc8:	e5933000 	ldr	r3, [r3]
30003ccc:	e1a01003 	mov	r1, r3
30003cd0:	e59f0024 	ldr	r0, [pc, #36]	; 30003cfc <ts_calibration_point+0x164>
30003cd4:	ebfff5ae 	bl	30001394 <print_data>
30003cd8:	e51b302c 	ldr	r3, [fp, #-44]	; 0xffffffd4
30003cdc:	e5933000 	ldr	r3, [r3]
30003ce0:	e1a01003 	mov	r1, r3
30003ce4:	e59f0014 	ldr	r0, [pc, #20]	; 30003d00 <ts_calibration_point+0x168>
30003ce8:	ebfff5a9 	bl	30001394 <print_data>
30003cec:	e1a00000 	nop			; (mov r0, r0)
30003cf0:	e24bd004 	sub	sp, fp, #4
30003cf4:	e8bd8800 	pop	{fp, pc}
30003cf8:	0000ffff 	strdeq	pc, [r0], -pc	; <UNPREDICTABLE>
30003cfc:	3000749c 	mulcc	r0, ip, r4
30003d00:	300074ac 	andcc	r7, r0, ip, lsr #9

30003d04 <ts_read>:
30003d04:	e92d4800 	push	{fp, lr}
30003d08:	e28db004 	add	fp, sp, #4
30003d0c:	e24dd020 	sub	sp, sp, #32
30003d10:	e50b0020 	str	r0, [fp, #-32]	; 0xffffffe0
30003d14:	e50b1024 	str	r1, [fp, #-36]	; 0xffffffdc
30003d18:	e3a03000 	mov	r3, #0
30003d1c:	e50b3014 	str	r3, [fp, #-20]	; 0xffffffec
30003d20:	e3a03000 	mov	r3, #0
30003d24:	e50b3018 	str	r3, [fp, #-24]	; 0xffffffe8
30003d28:	e3a03000 	mov	r3, #0
30003d2c:	e50b3008 	str	r3, [fp, #-8]
30003d30:	e3a03000 	mov	r3, #0
30003d34:	e50b300c 	str	r3, [fp, #-12]
30003d38:	ebfffcdd 	bl	300030b4 <lcd_get_params>
30003d3c:	e50b0010 	str	r0, [fp, #-16]
30003d40:	e1a00000 	nop			; (mov r0, r0)
30003d44:	ebfffe45 	bl	30003660 <ts_check_state>
30003d48:	e1a03000 	mov	r3, r0
30003d4c:	e3530000 	cmp	r3, #0
30003d50:	1afffffb 	bne	30003d44 <ts_read+0x40>
30003d54:	e24b2018 	sub	r2, fp, #24
30003d58:	e24b3014 	sub	r3, fp, #20
30003d5c:	e1a01002 	mov	r1, r2
30003d60:	e1a00003 	mov	r0, r3
30003d64:	ebfffe46 	bl	30003684 <ts_get_xy_analog_value>
30003d68:	e51b3014 	ldr	r3, [fp, #-20]	; 0xffffffec
30003d6c:	e3530000 	cmp	r3, #0
30003d70:	ba000002 	blt	30003d80 <ts_read+0x7c>
30003d74:	e51b3018 	ldr	r3, [fp, #-24]	; 0xffffffe8
30003d78:	e3530000 	cmp	r3, #0
30003d7c:	aa000006 	bge	30003d9c <ts_read+0x98>
30003d80:	e51b3020 	ldr	r3, [fp, #-32]	; 0xffffffe0
30003d84:	e3e02000 	mvn	r2, #0
30003d88:	e5832000 	str	r2, [r3]
30003d8c:	e51b3024 	ldr	r3, [fp, #-36]	; 0xffffffdc
30003d90:	e3e02000 	mvn	r2, #0
30003d94:	e5832000 	str	r2, [r3]
30003d98:	ea00005b 	b	30003f0c <ts_read+0x208>
30003d9c:	e59f3170 	ldr	r3, [pc, #368]	; 30003f14 <ts_read+0x210>
30003da0:	e5d33000 	ldrb	r3, [r3]
30003da4:	e3530000 	cmp	r3, #0
30003da8:	0a000004 	beq	30003dc0 <ts_read+0xbc>
30003dac:	e24b2018 	sub	r2, fp, #24
30003db0:	e24b3014 	sub	r3, fp, #20
30003db4:	e1a01002 	mov	r1, r2
30003db8:	e1a00003 	mov	r0, r3
30003dbc:	ebffff62 	bl	30003b4c <ts_xy_swap>
30003dc0:	e51b3014 	ldr	r3, [fp, #-20]	; 0xffffffec
30003dc4:	e1a00003 	mov	r0, r3
30003dc8:	eb000762 	bl	30005b58 <__aeabi_i2d>
30003dcc:	e59f3144 	ldr	r3, [pc, #324]	; 30003f18 <ts_read+0x214>
30003dd0:	e893000c 	ldm	r3, {r2, r3}
30003dd4:	eb000691 	bl	30005820 <__aeabi_dsub>
30003dd8:	e1a02000 	mov	r2, r0
30003ddc:	e1a03001 	mov	r3, r1
30003de0:	e1a00002 	mov	r0, r2
30003de4:	e1a01003 	mov	r1, r3
30003de8:	e59f312c 	ldr	r3, [pc, #300]	; 30003f1c <ts_read+0x218>
30003dec:	e893000c 	ldm	r3, {r2, r3}
30003df0:	eb000791 	bl	30005c3c <__aeabi_dmul>
30003df4:	e1a02000 	mov	r2, r0
30003df8:	e1a03001 	mov	r3, r1
30003dfc:	e1a00002 	mov	r0, r2
30003e00:	e1a01003 	mov	r1, r3
30003e04:	e59f3114 	ldr	r3, [pc, #276]	; 30003f20 <ts_read+0x21c>
30003e08:	e893000c 	ldm	r3, {r2, r3}
30003e0c:	eb000684 	bl	30005824 <__adddf3>
30003e10:	e1a02000 	mov	r2, r0
30003e14:	e1a03001 	mov	r3, r1
30003e18:	e1a00002 	mov	r0, r2
30003e1c:	e1a01003 	mov	r1, r3
30003e20:	eb0008ac 	bl	300060d8 <__aeabi_d2iz>
30003e24:	e1a03000 	mov	r3, r0
30003e28:	e50b3008 	str	r3, [fp, #-8]
30003e2c:	e51b3018 	ldr	r3, [fp, #-24]	; 0xffffffe8
30003e30:	e1a00003 	mov	r0, r3
30003e34:	eb000747 	bl	30005b58 <__aeabi_i2d>
30003e38:	e59f30e4 	ldr	r3, [pc, #228]	; 30003f24 <ts_read+0x220>
30003e3c:	e893000c 	ldm	r3, {r2, r3}
30003e40:	eb000676 	bl	30005820 <__aeabi_dsub>
30003e44:	e1a02000 	mov	r2, r0
30003e48:	e1a03001 	mov	r3, r1
30003e4c:	e1a00002 	mov	r0, r2
30003e50:	e1a01003 	mov	r1, r3
30003e54:	e59f30cc 	ldr	r3, [pc, #204]	; 30003f28 <ts_read+0x224>
30003e58:	e893000c 	ldm	r3, {r2, r3}
30003e5c:	eb000776 	bl	30005c3c <__aeabi_dmul>
30003e60:	e1a02000 	mov	r2, r0
30003e64:	e1a03001 	mov	r3, r1
30003e68:	e1a00002 	mov	r0, r2
30003e6c:	e1a01003 	mov	r1, r3
30003e70:	e59f30b4 	ldr	r3, [pc, #180]	; 30003f2c <ts_read+0x228>
30003e74:	e893000c 	ldm	r3, {r2, r3}
30003e78:	eb000669 	bl	30005824 <__adddf3>
30003e7c:	e1a02000 	mov	r2, r0
30003e80:	e1a03001 	mov	r3, r1
30003e84:	e1a00002 	mov	r0, r2
30003e88:	e1a01003 	mov	r1, r3
30003e8c:	eb000891 	bl	300060d8 <__aeabi_d2iz>
30003e90:	e1a03000 	mov	r3, r0
30003e94:	e50b300c 	str	r3, [fp, #-12]
30003e98:	e51b3008 	ldr	r3, [fp, #-8]
30003e9c:	e3530000 	cmp	r3, #0
30003ea0:	ba00000c 	blt	30003ed8 <ts_read+0x1d4>
30003ea4:	e51b3010 	ldr	r3, [fp, #-16]
30003ea8:	e5932024 	ldr	r2, [r3, #36]	; 0x24
30003eac:	e51b3008 	ldr	r3, [fp, #-8]
30003eb0:	e1520003 	cmp	r2, r3
30003eb4:	9a000007 	bls	30003ed8 <ts_read+0x1d4>
30003eb8:	e51b300c 	ldr	r3, [fp, #-12]
30003ebc:	e3530000 	cmp	r3, #0
30003ec0:	ba000004 	blt	30003ed8 <ts_read+0x1d4>
30003ec4:	e51b3010 	ldr	r3, [fp, #-16]
30003ec8:	e5932028 	ldr	r2, [r3, #40]	; 0x28
30003ecc:	e51b300c 	ldr	r3, [fp, #-12]
30003ed0:	e1520003 	cmp	r2, r3
30003ed4:	8a000006 	bhi	30003ef4 <ts_read+0x1f0>
30003ed8:	e51b3020 	ldr	r3, [fp, #-32]	; 0xffffffe0
30003edc:	e3e02000 	mvn	r2, #0
30003ee0:	e5832000 	str	r2, [r3]
30003ee4:	e51b3024 	ldr	r3, [fp, #-36]	; 0xffffffdc
30003ee8:	e3e02000 	mvn	r2, #0
30003eec:	e5832000 	str	r2, [r3]
30003ef0:	ea000005 	b	30003f0c <ts_read+0x208>
30003ef4:	e51b3020 	ldr	r3, [fp, #-32]	; 0xffffffe0
30003ef8:	e51b2008 	ldr	r2, [fp, #-8]
30003efc:	e5832000 	str	r2, [r3]
30003f00:	e51b3024 	ldr	r3, [fp, #-36]	; 0xffffffdc
30003f04:	e51b200c 	ldr	r2, [fp, #-12]
30003f08:	e5832000 	str	r2, [r3]
30003f0c:	e24bd004 	sub	sp, fp, #4
30003f10:	e8bd8800 	pop	{fp, pc}
30003f14:	30007808 	andcc	r7, r0, r8, lsl #16
30003f18:	300077e8 	andcc	r7, r0, r8, ror #15
30003f1c:	300077d8 	ldrdcc	r7, [r0], -r8
30003f20:	300077f8 	strdcc	r7, [r0], -r8
30003f24:	300077f0 	strdcc	r7, [r0], -r0
30003f28:	300077e0 	andcc	r7, r0, r0, ror #15
30003f2c:	30007800 	andcc	r7, r0, r0, lsl #16

30003f30 <bh1750_init>:
30003f30:	e92d4800 	push	{fp, lr}
30003f34:	e28db004 	add	fp, sp, #4
30003f38:	e24dd020 	sub	sp, sp, #32
30003f3c:	e3a03001 	mov	r3, #1
30003f40:	e54b3009 	strb	r3, [fp, #-9]
30003f44:	e3a03023 	mov	r3, #35	; 0x23
30003f48:	e54b3024 	strb	r3, [fp, #-36]	; 0xffffffdc
30003f4c:	e3a03000 	mov	r3, #0
30003f50:	e50b3020 	str	r3, [fp, #-32]	; 0xffffffe0
30003f54:	e24b3009 	sub	r3, fp, #9
30003f58:	e50b301c 	str	r3, [fp, #-28]	; 0xffffffe4
30003f5c:	e3a03001 	mov	r3, #1
30003f60:	e50b3018 	str	r3, [fp, #-24]	; 0xffffffe8
30003f64:	e3a03000 	mov	r3, #0
30003f68:	e50b3014 	str	r3, [fp, #-20]	; 0xffffffec
30003f6c:	e3a03000 	mov	r3, #0
30003f70:	e50b3010 	str	r3, [fp, #-16]
30003f74:	e24b3024 	sub	r3, fp, #36	; 0x24
30003f78:	e3a01001 	mov	r1, #1
30003f7c:	e1a00003 	mov	r0, r3
30003f80:	eb0000bc 	bl	30004278 <i2c_tranfer>
30003f84:	e50b0008 	str	r0, [fp, #-8]
30003f88:	e51b3008 	ldr	r3, [fp, #-8]
30003f8c:	e1a00003 	mov	r0, r3
30003f90:	e24bd004 	sub	sp, fp, #4
30003f94:	e8bd8800 	pop	{fp, pc}

30003f98 <bh1750_reset>:
30003f98:	e92d4800 	push	{fp, lr}
30003f9c:	e28db004 	add	fp, sp, #4
30003fa0:	e24dd020 	sub	sp, sp, #32
30003fa4:	e3a03007 	mov	r3, #7
30003fa8:	e54b3009 	strb	r3, [fp, #-9]
30003fac:	e3a03023 	mov	r3, #35	; 0x23
30003fb0:	e54b3024 	strb	r3, [fp, #-36]	; 0xffffffdc
30003fb4:	e3a03000 	mov	r3, #0
30003fb8:	e50b3020 	str	r3, [fp, #-32]	; 0xffffffe0
30003fbc:	e24b3009 	sub	r3, fp, #9
30003fc0:	e50b301c 	str	r3, [fp, #-28]	; 0xffffffe4
30003fc4:	e3a03001 	mov	r3, #1
30003fc8:	e50b3018 	str	r3, [fp, #-24]	; 0xffffffe8
30003fcc:	e3a03000 	mov	r3, #0
30003fd0:	e50b3014 	str	r3, [fp, #-20]	; 0xffffffec
30003fd4:	e3a03000 	mov	r3, #0
30003fd8:	e50b3010 	str	r3, [fp, #-16]
30003fdc:	e24b3024 	sub	r3, fp, #36	; 0x24
30003fe0:	e3a01001 	mov	r1, #1
30003fe4:	e1a00003 	mov	r0, r3
30003fe8:	eb0000a2 	bl	30004278 <i2c_tranfer>
30003fec:	e50b0008 	str	r0, [fp, #-8]
30003ff0:	e1a00000 	nop			; (mov r0, r0)
30003ff4:	e24bd004 	sub	sp, fp, #4
30003ff8:	e8bd8800 	pop	{fp, pc}

30003ffc <bh1750_set_mode>:
30003ffc:	e92d4800 	push	{fp, lr}
30004000:	e28db004 	add	fp, sp, #4
30004004:	e24dd020 	sub	sp, sp, #32
30004008:	e3a03010 	mov	r3, #16
3000400c:	e54b3005 	strb	r3, [fp, #-5]
30004010:	e3a03023 	mov	r3, #35	; 0x23
30004014:	e54b3020 	strb	r3, [fp, #-32]	; 0xffffffe0
30004018:	e3a03000 	mov	r3, #0
3000401c:	e50b301c 	str	r3, [fp, #-28]	; 0xffffffe4
30004020:	e24b3005 	sub	r3, fp, #5
30004024:	e50b3018 	str	r3, [fp, #-24]	; 0xffffffe8
30004028:	e3a03001 	mov	r3, #1
3000402c:	e50b3014 	str	r3, [fp, #-20]	; 0xffffffec
30004030:	e3a03000 	mov	r3, #0
30004034:	e50b3010 	str	r3, [fp, #-16]
30004038:	e3a03000 	mov	r3, #0
3000403c:	e50b300c 	str	r3, [fp, #-12]
30004040:	e24b3020 	sub	r3, fp, #32
30004044:	e3a01001 	mov	r1, #1
30004048:	e1a00003 	mov	r0, r3
3000404c:	eb000089 	bl	30004278 <i2c_tranfer>
30004050:	e1a00000 	nop			; (mov r0, r0)
30004054:	e24bd004 	sub	sp, fp, #4
30004058:	e8bd8800 	pop	{fp, pc}

3000405c <bh1750_measure_test>:
3000405c:	e92d4800 	push	{fp, lr}
30004060:	e28db004 	add	fp, sp, #4
30004064:	e24dd028 	sub	sp, sp, #40	; 0x28
30004068:	e3a03000 	mov	r3, #0
3000406c:	e14b31b0 	strh	r3, [fp, #-16]
30004070:	e3a03023 	mov	r3, #35	; 0x23
30004074:	e54b3028 	strb	r3, [fp, #-40]	; 0xffffffd8
30004078:	e3a03001 	mov	r3, #1
3000407c:	e50b3024 	str	r3, [fp, #-36]	; 0xffffffdc
30004080:	e24b3010 	sub	r3, fp, #16
30004084:	e50b3020 	str	r3, [fp, #-32]	; 0xffffffe0
30004088:	e3a03002 	mov	r3, #2
3000408c:	e50b301c 	str	r3, [fp, #-28]	; 0xffffffe4
30004090:	e3a03000 	mov	r3, #0
30004094:	e50b3018 	str	r3, [fp, #-24]	; 0xffffffe8
30004098:	e3a03000 	mov	r3, #0
3000409c:	e50b3014 	str	r3, [fp, #-20]	; 0xffffffec
300040a0:	e24b3028 	sub	r3, fp, #40	; 0x28
300040a4:	e3a01001 	mov	r1, #1
300040a8:	e1a00003 	mov	r0, r3
300040ac:	eb000071 	bl	30004278 <i2c_tranfer>
300040b0:	e50b0008 	str	r0, [fp, #-8]
300040b4:	e55b3010 	ldrb	r3, [fp, #-16]
300040b8:	e1a03403 	lsl	r3, r3, #8
300040bc:	e55b200f 	ldrb	r2, [fp, #-15]
300040c0:	e1833002 	orr	r3, r3, r2
300040c4:	e50b300c 	str	r3, [fp, #-12]
300040c8:	e51b3008 	ldr	r3, [fp, #-8]
300040cc:	e3530001 	cmp	r3, #1
300040d0:	1a000004 	bne	300040e8 <bh1750_measure_test+0x8c>
300040d4:	e59f2024 	ldr	r2, [pc, #36]	; 30004100 <bh1750_measure_test+0xa4>
300040d8:	e51b100c 	ldr	r1, [fp, #-12]
300040dc:	e59f0020 	ldr	r0, [pc, #32]	; 30004104 <bh1750_measure_test+0xa8>
300040e0:	ebfff4ba 	bl	300013d0 <print_data_unit>
300040e4:	ea000001 	b	300040f0 <bh1750_measure_test+0x94>
300040e8:	e59f0018 	ldr	r0, [pc, #24]	; 30004108 <bh1750_measure_test+0xac>
300040ec:	ebfff402 	bl	300010fc <puts>
300040f0:	e1a00000 	nop			; (mov r0, r0)
300040f4:	e1a00003 	mov	r0, r3
300040f8:	e24bd004 	sub	sp, fp, #4
300040fc:	e8bd8800 	pop	{fp, pc}
30004100:	300074bc 			; <UNDEFINED> instruction: 0x300074bc
30004104:	300074c0 	andcc	r7, r0, r0, asr #9
30004108:	300074d4 	ldrdcc	r7, [r0], -r4

3000410c <i2c_control_select>:
3000410c:	e92d4800 	push	{fp, lr}
30004110:	e28db004 	add	fp, sp, #4
30004114:	e24dd010 	sub	sp, sp, #16
30004118:	e50b0010 	str	r0, [fp, #-16]
3000411c:	e3a03000 	mov	r3, #0
30004120:	e50b3008 	str	r3, [fp, #-8]
30004124:	ea000018 	b	3000418c <i2c_control_select+0x80>
30004128:	e59f2078 	ldr	r2, [pc, #120]	; 300041a8 <i2c_control_select+0x9c>
3000412c:	e51b3008 	ldr	r3, [fp, #-8]
30004130:	e7923103 	ldr	r3, [r2, r3, lsl #2]
30004134:	e3530000 	cmp	r3, #0
30004138:	0a000010 	beq	30004180 <i2c_control_select+0x74>
3000413c:	e59f2064 	ldr	r2, [pc, #100]	; 300041a8 <i2c_control_select+0x9c>
30004140:	e51b3008 	ldr	r3, [fp, #-8]
30004144:	e7923103 	ldr	r3, [r2, r3, lsl #2]
30004148:	e5933000 	ldr	r3, [r3]
3000414c:	e51b1010 	ldr	r1, [fp, #-16]
30004150:	e1a00003 	mov	r0, r3
30004154:	ebfff72c 	bl	30001e0c <strcmp>
30004158:	e1a03000 	mov	r3, r0
3000415c:	e3530000 	cmp	r3, #0
30004160:	1a000006 	bne	30004180 <i2c_control_select+0x74>
30004164:	e59f203c 	ldr	r2, [pc, #60]	; 300041a8 <i2c_control_select+0x9c>
30004168:	e51b3008 	ldr	r3, [fp, #-8]
3000416c:	e7923103 	ldr	r3, [r2, r3, lsl #2]
30004170:	e59f2034 	ldr	r2, [pc, #52]	; 300041ac <i2c_control_select+0xa0>
30004174:	e5823000 	str	r3, [r2]
30004178:	e3a03000 	mov	r3, #0
3000417c:	ea000006 	b	3000419c <i2c_control_select+0x90>
30004180:	e51b3008 	ldr	r3, [fp, #-8]
30004184:	e2833001 	add	r3, r3, #1
30004188:	e50b3008 	str	r3, [fp, #-8]
3000418c:	e51b3008 	ldr	r3, [fp, #-8]
30004190:	e3530009 	cmp	r3, #9
30004194:	daffffe3 	ble	30004128 <i2c_control_select+0x1c>
30004198:	e3e03000 	mvn	r3, #0
3000419c:	e1a00003 	mov	r0, r3
300041a0:	e24bd004 	sub	sp, fp, #4
300041a4:	e8bd8800 	pop	{fp, pc}
300041a8:	3000780c 	andcc	r7, r0, ip, lsl #16
300041ac:	30007834 	andcc	r7, r0, r4, lsr r8

300041b0 <i2c_control_register>:
300041b0:	e52db004 	push	{fp}		; (str fp, [sp, #-4]!)
300041b4:	e28db000 	add	fp, sp, #0
300041b8:	e24dd014 	sub	sp, sp, #20
300041bc:	e50b0010 	str	r0, [fp, #-16]
300041c0:	e3a03000 	mov	r3, #0
300041c4:	e50b3008 	str	r3, [fp, #-8]
300041c8:	ea00000d 	b	30004204 <i2c_control_register+0x54>
300041cc:	e59f2050 	ldr	r2, [pc, #80]	; 30004224 <i2c_control_register+0x74>
300041d0:	e51b3008 	ldr	r3, [fp, #-8]
300041d4:	e7923103 	ldr	r3, [r2, r3, lsl #2]
300041d8:	e3530000 	cmp	r3, #0
300041dc:	1a000005 	bne	300041f8 <i2c_control_register+0x48>
300041e0:	e59f103c 	ldr	r1, [pc, #60]	; 30004224 <i2c_control_register+0x74>
300041e4:	e51b3008 	ldr	r3, [fp, #-8]
300041e8:	e51b2010 	ldr	r2, [fp, #-16]
300041ec:	e7812103 	str	r2, [r1, r3, lsl #2]
300041f0:	e3a03000 	mov	r3, #0
300041f4:	ea000006 	b	30004214 <i2c_control_register+0x64>
300041f8:	e51b3008 	ldr	r3, [fp, #-8]
300041fc:	e2833001 	add	r3, r3, #1
30004200:	e50b3008 	str	r3, [fp, #-8]
30004204:	e51b3008 	ldr	r3, [fp, #-8]
30004208:	e3530009 	cmp	r3, #9
3000420c:	daffffee 	ble	300041cc <i2c_control_register+0x1c>
30004210:	e3e03000 	mvn	r3, #0
30004214:	e1a00003 	mov	r0, r3
30004218:	e28bd000 	add	sp, fp, #0
3000421c:	e49db004 	pop	{fp}		; (ldr fp, [sp], #4)
30004220:	e1a0f00e 	mov	pc, lr
30004224:	3000780c 	andcc	r7, r0, ip, lsl #16

30004228 <i2c_init>:
30004228:	e92d4800 	push	{fp, lr}
3000422c:	e28db004 	add	fp, sp, #4
30004230:	eb00012d 	bl	300046ec <s3c2440_i2c_contol_add>
30004234:	e59f0030 	ldr	r0, [pc, #48]	; 3000426c <i2c_init+0x44>
30004238:	ebffffb3 	bl	3000410c <i2c_control_select>
3000423c:	e1a03000 	mov	r3, r0
30004240:	e3730001 	cmn	r3, #1
30004244:	1a000001 	bne	30004250 <i2c_init+0x28>
30004248:	e59f0020 	ldr	r0, [pc, #32]	; 30004270 <i2c_init+0x48>
3000424c:	ebfff3aa 	bl	300010fc <puts>
30004250:	e59f301c 	ldr	r3, [pc, #28]	; 30004274 <i2c_init+0x4c>
30004254:	e5933000 	ldr	r3, [r3]
30004258:	e5933004 	ldr	r3, [r3, #4]
3000425c:	e1a0e00f 	mov	lr, pc
30004260:	e1a0f003 	mov	pc, r3
30004264:	e1a00000 	nop			; (mov r0, r0)
30004268:	e8bd8800 	pop	{fp, pc}
3000426c:	300074f0 	strdcc	r7, [r0], -r0
30004270:	300074f8 	strdcc	r7, [r0], -r8
30004274:	30007834 	andcc	r7, r0, r4, lsr r8

30004278 <i2c_tranfer>:
30004278:	e92d4800 	push	{fp, lr}
3000427c:	e28db004 	add	fp, sp, #4
30004280:	e24dd008 	sub	sp, sp, #8
30004284:	e50b0008 	str	r0, [fp, #-8]
30004288:	e50b100c 	str	r1, [fp, #-12]
3000428c:	e59f3024 	ldr	r3, [pc, #36]	; 300042b8 <i2c_tranfer+0x40>
30004290:	e5933000 	ldr	r3, [r3]
30004294:	e5933008 	ldr	r3, [r3, #8]
30004298:	e51b100c 	ldr	r1, [fp, #-12]
3000429c:	e51b0008 	ldr	r0, [fp, #-8]
300042a0:	e1a0e00f 	mov	lr, pc
300042a4:	e1a0f003 	mov	pc, r3
300042a8:	e1a03000 	mov	r3, r0
300042ac:	e1a00003 	mov	r0, r3
300042b0:	e24bd004 	sub	sp, fp, #4
300042b4:	e8bd8800 	pop	{fp, pc}
300042b8:	30007834 	andcc	r7, r0, r4, lsr r8

300042bc <s3c2440_i2c_interrupt_handler>:
300042bc:	e92d4800 	push	{fp, lr}
300042c0:	e28db004 	add	fp, sp, #4
300042c4:	e24dd010 	sub	sp, sp, #16
300042c8:	e50b0010 	str	r0, [fp, #-16]
300042cc:	e59f328c 	ldr	r3, [pc, #652]	; 30004560 <s3c2440_i2c_interrupt_handler+0x2a4>
300042d0:	e5933000 	ldr	r3, [r3]
300042d4:	e5932010 	ldr	r2, [r3, #16]
300042d8:	e2822001 	add	r2, r2, #1
300042dc:	e5832010 	str	r2, [r3, #16]
300042e0:	e59f3278 	ldr	r3, [pc, #632]	; 30004560 <s3c2440_i2c_interrupt_handler+0x2a4>
300042e4:	e5933000 	ldr	r3, [r3]
300042e8:	e5933010 	ldr	r3, [r3, #16]
300042ec:	e3530001 	cmp	r3, #1
300042f0:	1a00000b 	bne	30004324 <s3c2440_i2c_interrupt_handler+0x68>
300042f4:	e59f3268 	ldr	r3, [pc, #616]	; 30004564 <s3c2440_i2c_interrupt_handler+0x2a8>
300042f8:	e5933000 	ldr	r3, [r3]
300042fc:	e2033001 	and	r3, r3, #1
30004300:	e3530000 	cmp	r3, #0
30004304:	0a000006 	beq	30004324 <s3c2440_i2c_interrupt_handler+0x68>
30004308:	e59f0258 	ldr	r0, [pc, #600]	; 30004568 <s3c2440_i2c_interrupt_handler+0x2ac>
3000430c:	ebfff37a 	bl	300010fc <puts>
30004310:	e59f3248 	ldr	r3, [pc, #584]	; 30004560 <s3c2440_i2c_interrupt_handler+0x2a4>
30004314:	e5933000 	ldr	r3, [r3]
30004318:	e3e02000 	mvn	r2, #0
3000431c:	e5832014 	str	r2, [r3, #20]
30004320:	ea00008c 	b	30004558 <s3c2440_i2c_interrupt_handler+0x29c>
30004324:	e59f3234 	ldr	r3, [pc, #564]	; 30004560 <s3c2440_i2c_interrupt_handler+0x2a4>
30004328:	e5933000 	ldr	r3, [r3]
3000432c:	e5933004 	ldr	r3, [r3, #4]
30004330:	e3530000 	cmp	r3, #0
30004334:	1a00002f 	bne	300043f8 <s3c2440_i2c_interrupt_handler+0x13c>
30004338:	e59f3220 	ldr	r3, [pc, #544]	; 30004560 <s3c2440_i2c_interrupt_handler+0x2a4>
3000433c:	e5933000 	ldr	r3, [r3]
30004340:	e5933010 	ldr	r3, [r3, #16]
30004344:	e2432001 	sub	r2, r3, #1
30004348:	e59f3210 	ldr	r3, [pc, #528]	; 30004560 <s3c2440_i2c_interrupt_handler+0x2a4>
3000434c:	e5933000 	ldr	r3, [r3]
30004350:	e593300c 	ldr	r3, [r3, #12]
30004354:	e1520003 	cmp	r2, r3
30004358:	1a000015 	bne	300043b4 <s3c2440_i2c_interrupt_handler+0xf8>
3000435c:	e59f3200 	ldr	r3, [pc, #512]	; 30004564 <s3c2440_i2c_interrupt_handler+0x2a8>
30004360:	e3a020d0 	mov	r2, #208	; 0xd0
30004364:	e5832000 	str	r2, [r3]
30004368:	e3a03315 	mov	r3, #1409286144	; 0x54000000
3000436c:	e5933000 	ldr	r3, [r3]
30004370:	e3a02315 	mov	r2, #1409286144	; 0x54000000
30004374:	e3c33010 	bic	r3, r3, #16
30004378:	e5823000 	str	r3, [r2]
3000437c:	e59f31dc 	ldr	r3, [pc, #476]	; 30004560 <s3c2440_i2c_interrupt_handler+0x2a4>
30004380:	e5933000 	ldr	r3, [r3]
30004384:	e3a02001 	mov	r2, #1
30004388:	e5832014 	str	r2, [r3, #20]
3000438c:	e3a03000 	mov	r3, #0
30004390:	e50b3008 	str	r3, [fp, #-8]
30004394:	ea000002 	b	300043a4 <s3c2440_i2c_interrupt_handler+0xe8>
30004398:	e51b3008 	ldr	r3, [fp, #-8]
3000439c:	e2833001 	add	r3, r3, #1
300043a0:	e50b3008 	str	r3, [fp, #-8]
300043a4:	e51b3008 	ldr	r3, [fp, #-8]
300043a8:	e3530ffa 	cmp	r3, #1000	; 0x3e8
300043ac:	bafffff9 	blt	30004398 <s3c2440_i2c_interrupt_handler+0xdc>
300043b0:	ea000068 	b	30004558 <s3c2440_i2c_interrupt_handler+0x29c>
300043b4:	e59f31a4 	ldr	r3, [pc, #420]	; 30004560 <s3c2440_i2c_interrupt_handler+0x2a4>
300043b8:	e5933000 	ldr	r3, [r3]
300043bc:	e5932008 	ldr	r2, [r3, #8]
300043c0:	e59f3198 	ldr	r3, [pc, #408]	; 30004560 <s3c2440_i2c_interrupt_handler+0x2a4>
300043c4:	e5933000 	ldr	r3, [r3]
300043c8:	e5933010 	ldr	r3, [r3, #16]
300043cc:	e2433001 	sub	r3, r3, #1
300043d0:	e0823003 	add	r3, r2, r3
300043d4:	e5d32000 	ldrb	r2, [r3]
300043d8:	e59f318c 	ldr	r3, [pc, #396]	; 3000456c <s3c2440_i2c_interrupt_handler+0x2b0>
300043dc:	e5832000 	str	r2, [r3]
300043e0:	e3a03315 	mov	r3, #1409286144	; 0x54000000
300043e4:	e5933000 	ldr	r3, [r3]
300043e8:	e3a02315 	mov	r2, #1409286144	; 0x54000000
300043ec:	e3c33010 	bic	r3, r3, #16
300043f0:	e5823000 	str	r3, [r2]
300043f4:	ea000057 	b	30004558 <s3c2440_i2c_interrupt_handler+0x29c>
300043f8:	e59f3160 	ldr	r3, [pc, #352]	; 30004560 <s3c2440_i2c_interrupt_handler+0x2a4>
300043fc:	e5933000 	ldr	r3, [r3]
30004400:	e5933004 	ldr	r3, [r3, #4]
30004404:	e3530001 	cmp	r3, #1
30004408:	1a000052 	bne	30004558 <s3c2440_i2c_interrupt_handler+0x29c>
3000440c:	e59f314c 	ldr	r3, [pc, #332]	; 30004560 <s3c2440_i2c_interrupt_handler+0x2a4>
30004410:	e5933000 	ldr	r3, [r3]
30004414:	e5933010 	ldr	r3, [r3, #16]
30004418:	e3530001 	cmp	r3, #1
3000441c:	1a00000a 	bne	3000444c <s3c2440_i2c_interrupt_handler+0x190>
30004420:	e3a03315 	mov	r3, #1409286144	; 0x54000000
30004424:	e5933000 	ldr	r3, [r3]
30004428:	e3a02315 	mov	r2, #1409286144	; 0x54000000
3000442c:	e3833080 	orr	r3, r3, #128	; 0x80
30004430:	e5823000 	str	r3, [r2]
30004434:	e3a03315 	mov	r3, #1409286144	; 0x54000000
30004438:	e5933000 	ldr	r3, [r3]
3000443c:	e3a02315 	mov	r2, #1409286144	; 0x54000000
30004440:	e3c33010 	bic	r3, r3, #16
30004444:	e5823000 	str	r3, [r2]
30004448:	ea000042 	b	30004558 <s3c2440_i2c_interrupt_handler+0x29c>
3000444c:	e59f310c 	ldr	r3, [pc, #268]	; 30004560 <s3c2440_i2c_interrupt_handler+0x2a4>
30004450:	e5933000 	ldr	r3, [r3]
30004454:	e5933010 	ldr	r3, [r3, #16]
30004458:	e2432001 	sub	r2, r3, #1
3000445c:	e59f30fc 	ldr	r3, [pc, #252]	; 30004560 <s3c2440_i2c_interrupt_handler+0x2a4>
30004460:	e5933000 	ldr	r3, [r3]
30004464:	e593300c 	ldr	r3, [r3, #12]
30004468:	e1520003 	cmp	r2, r3
3000446c:	9a000015 	bls	300044c8 <s3c2440_i2c_interrupt_handler+0x20c>
30004470:	e59f30ec 	ldr	r3, [pc, #236]	; 30004564 <s3c2440_i2c_interrupt_handler+0x2a8>
30004474:	e3a02090 	mov	r2, #144	; 0x90
30004478:	e5832000 	str	r2, [r3]
3000447c:	e3a03315 	mov	r3, #1409286144	; 0x54000000
30004480:	e5933000 	ldr	r3, [r3]
30004484:	e3a02315 	mov	r2, #1409286144	; 0x54000000
30004488:	e3c33010 	bic	r3, r3, #16
3000448c:	e5823000 	str	r3, [r2]
30004490:	e59f30c8 	ldr	r3, [pc, #200]	; 30004560 <s3c2440_i2c_interrupt_handler+0x2a4>
30004494:	e5933000 	ldr	r3, [r3]
30004498:	e3a02001 	mov	r2, #1
3000449c:	e5832014 	str	r2, [r3, #20]
300044a0:	e3a03000 	mov	r3, #0
300044a4:	e50b300c 	str	r3, [fp, #-12]
300044a8:	ea000002 	b	300044b8 <s3c2440_i2c_interrupt_handler+0x1fc>
300044ac:	e51b300c 	ldr	r3, [fp, #-12]
300044b0:	e2833001 	add	r3, r3, #1
300044b4:	e50b300c 	str	r3, [fp, #-12]
300044b8:	e51b300c 	ldr	r3, [fp, #-12]
300044bc:	e3530ffa 	cmp	r3, #1000	; 0x3e8
300044c0:	bafffff9 	blt	300044ac <s3c2440_i2c_interrupt_handler+0x1f0>
300044c4:	ea000023 	b	30004558 <s3c2440_i2c_interrupt_handler+0x29c>
300044c8:	e59f309c 	ldr	r3, [pc, #156]	; 3000456c <s3c2440_i2c_interrupt_handler+0x2b0>
300044cc:	e5932000 	ldr	r2, [r3]
300044d0:	e59f3088 	ldr	r3, [pc, #136]	; 30004560 <s3c2440_i2c_interrupt_handler+0x2a4>
300044d4:	e5933000 	ldr	r3, [r3]
300044d8:	e5931008 	ldr	r1, [r3, #8]
300044dc:	e59f307c 	ldr	r3, [pc, #124]	; 30004560 <s3c2440_i2c_interrupt_handler+0x2a4>
300044e0:	e5933000 	ldr	r3, [r3]
300044e4:	e5933010 	ldr	r3, [r3, #16]
300044e8:	e2433002 	sub	r3, r3, #2
300044ec:	e0813003 	add	r3, r1, r3
300044f0:	e20220ff 	and	r2, r2, #255	; 0xff
300044f4:	e5c32000 	strb	r2, [r3]
300044f8:	e59f3060 	ldr	r3, [pc, #96]	; 30004560 <s3c2440_i2c_interrupt_handler+0x2a4>
300044fc:	e5933000 	ldr	r3, [r3]
30004500:	e5932010 	ldr	r2, [r3, #16]
30004504:	e59f3054 	ldr	r3, [pc, #84]	; 30004560 <s3c2440_i2c_interrupt_handler+0x2a4>
30004508:	e5933000 	ldr	r3, [r3]
3000450c:	e593300c 	ldr	r3, [r3, #12]
30004510:	e1520003 	cmp	r2, r3
30004514:	1a000005 	bne	30004530 <s3c2440_i2c_interrupt_handler+0x274>
30004518:	e3a03315 	mov	r3, #1409286144	; 0x54000000
3000451c:	e5933000 	ldr	r3, [r3]
30004520:	e3a02315 	mov	r2, #1409286144	; 0x54000000
30004524:	e3c33080 	bic	r3, r3, #128	; 0x80
30004528:	e5823000 	str	r3, [r2]
3000452c:	ea000004 	b	30004544 <s3c2440_i2c_interrupt_handler+0x288>
30004530:	e3a03315 	mov	r3, #1409286144	; 0x54000000
30004534:	e5933000 	ldr	r3, [r3]
30004538:	e3a02315 	mov	r2, #1409286144	; 0x54000000
3000453c:	e3833080 	orr	r3, r3, #128	; 0x80
30004540:	e5823000 	str	r3, [r2]
30004544:	e3a03315 	mov	r3, #1409286144	; 0x54000000
30004548:	e5933000 	ldr	r3, [r3]
3000454c:	e3a02315 	mov	r2, #1409286144	; 0x54000000
30004550:	e3c33010 	bic	r3, r3, #16
30004554:	e5823000 	str	r3, [r2]
30004558:	e24bd004 	sub	sp, fp, #4
3000455c:	e8bd8800 	pop	{fp, pc}
30004560:	30007838 	andcc	r7, r0, r8, lsr r8
30004564:	54000004 	strpl	r0, [r0], #-4
30004568:	3000751c 	andcc	r7, r0, ip, lsl r5
3000456c:	5400000c 	strpl	r0, [r0], #-12

30004570 <s3c2440_i2c_contol_init>:
30004570:	e92d4800 	push	{fp, lr}
30004574:	e28db004 	add	fp, sp, #4
30004578:	e59f3040 	ldr	r3, [pc, #64]	; 300045c0 <s3c2440_i2c_contol_init+0x50>
3000457c:	e5933000 	ldr	r3, [r3]
30004580:	e59f2038 	ldr	r2, [pc, #56]	; 300045c0 <s3c2440_i2c_contol_init+0x50>
30004584:	e383320a 	orr	r3, r3, #-1610612736	; 0xa0000000
30004588:	e5823000 	str	r3, [r2]
3000458c:	e3a03315 	mov	r3, #1409286144	; 0x54000000
30004590:	e3a020e0 	mov	r2, #224	; 0xe0
30004594:	e5832000 	str	r2, [r3]
30004598:	e3a03315 	mov	r3, #1409286144	; 0x54000000
3000459c:	e5933000 	ldr	r3, [r3]
300045a0:	e3a02315 	mov	r2, #1409286144	; 0x54000000
300045a4:	e3c3300f 	bic	r3, r3, #15
300045a8:	e5823000 	str	r3, [r2]
300045ac:	e59f1010 	ldr	r1, [pc, #16]	; 300045c4 <s3c2440_i2c_contol_init+0x54>
300045b0:	e3a0001b 	mov	r0, #27
300045b4:	ebfff48d 	bl	300017f0 <register_irq>
300045b8:	e1a00000 	nop			; (mov r0, r0)
300045bc:	e8bd8800 	pop	{fp, pc}
300045c0:	56000040 	strpl	r0, [r0], -r0, asr #32
300045c4:	300042bc 			; <UNDEFINED> instruction: 0x300042bc

300045c8 <s3c2440_i2c_contol_tranfer>:
300045c8:	e52db004 	push	{fp}		; (str fp, [sp, #-4]!)
300045cc:	e28db000 	add	fp, sp, #0
300045d0:	e24dd014 	sub	sp, sp, #20
300045d4:	e50b0010 	str	r0, [fp, #-16]
300045d8:	e50b1014 	str	r1, [fp, #-20]	; 0xffffffec
300045dc:	e59f20fc 	ldr	r2, [pc, #252]	; 300046e0 <s3c2440_i2c_contol_tranfer+0x118>
300045e0:	e51b3010 	ldr	r3, [fp, #-16]
300045e4:	e5823000 	str	r3, [r2]
300045e8:	e3a03000 	mov	r3, #0
300045ec:	e50b3008 	str	r3, [fp, #-8]
300045f0:	ea00002f 	b	300046b4 <s3c2440_i2c_contol_tranfer+0xec>
300045f4:	e59f30e4 	ldr	r3, [pc, #228]	; 300046e0 <s3c2440_i2c_contol_tranfer+0x118>
300045f8:	e5933000 	ldr	r3, [r3]
300045fc:	e5933004 	ldr	r3, [r3, #4]
30004600:	e3530000 	cmp	r3, #0
30004604:	1a00000e 	bne	30004644 <s3c2440_i2c_contol_tranfer+0x7c>
30004608:	e59f30d4 	ldr	r3, [pc, #212]	; 300046e4 <s3c2440_i2c_contol_tranfer+0x11c>
3000460c:	e5933000 	ldr	r3, [r3]
30004610:	e59f20cc 	ldr	r2, [pc, #204]	; 300046e4 <s3c2440_i2c_contol_tranfer+0x11c>
30004614:	e3833010 	orr	r3, r3, #16
30004618:	e5823000 	str	r3, [r2]
3000461c:	e59f30bc 	ldr	r3, [pc, #188]	; 300046e0 <s3c2440_i2c_contol_tranfer+0x118>
30004620:	e5933000 	ldr	r3, [r3]
30004624:	e5d33000 	ldrb	r3, [r3]
30004628:	e1a02083 	lsl	r2, r3, #1
3000462c:	e59f30b4 	ldr	r3, [pc, #180]	; 300046e8 <s3c2440_i2c_contol_tranfer+0x120>
30004630:	e5832000 	str	r2, [r3]
30004634:	e59f30a8 	ldr	r3, [pc, #168]	; 300046e4 <s3c2440_i2c_contol_tranfer+0x11c>
30004638:	e3a020f0 	mov	r2, #240	; 0xf0
3000463c:	e5832000 	str	r2, [r3]
30004640:	ea000012 	b	30004690 <s3c2440_i2c_contol_tranfer+0xc8>
30004644:	e59f3094 	ldr	r3, [pc, #148]	; 300046e0 <s3c2440_i2c_contol_tranfer+0x118>
30004648:	e5933000 	ldr	r3, [r3]
3000464c:	e5933004 	ldr	r3, [r3, #4]
30004650:	e3530001 	cmp	r3, #1
30004654:	1a00000d 	bne	30004690 <s3c2440_i2c_contol_tranfer+0xc8>
30004658:	e59f3084 	ldr	r3, [pc, #132]	; 300046e4 <s3c2440_i2c_contol_tranfer+0x11c>
3000465c:	e5933000 	ldr	r3, [r3]
30004660:	e59f207c 	ldr	r2, [pc, #124]	; 300046e4 <s3c2440_i2c_contol_tranfer+0x11c>
30004664:	e3833010 	orr	r3, r3, #16
30004668:	e5823000 	str	r3, [r2]
3000466c:	e59f306c 	ldr	r3, [pc, #108]	; 300046e0 <s3c2440_i2c_contol_tranfer+0x118>
30004670:	e5933000 	ldr	r3, [r3]
30004674:	e5d33000 	ldrb	r3, [r3]
30004678:	e1a02083 	lsl	r2, r3, #1
3000467c:	e59f3064 	ldr	r3, [pc, #100]	; 300046e8 <s3c2440_i2c_contol_tranfer+0x120>
30004680:	e5832000 	str	r2, [r3]
30004684:	e59f3058 	ldr	r3, [pc, #88]	; 300046e4 <s3c2440_i2c_contol_tranfer+0x11c>
30004688:	e3a020b0 	mov	r2, #176	; 0xb0
3000468c:	e5832000 	str	r2, [r3]
30004690:	e1a00000 	nop			; (mov r0, r0)
30004694:	e59f3044 	ldr	r3, [pc, #68]	; 300046e0 <s3c2440_i2c_contol_tranfer+0x118>
30004698:	e5933000 	ldr	r3, [r3]
3000469c:	e5933014 	ldr	r3, [r3, #20]
300046a0:	e3530000 	cmp	r3, #0
300046a4:	0afffffa 	beq	30004694 <s3c2440_i2c_contol_tranfer+0xcc>
300046a8:	e51b3008 	ldr	r3, [fp, #-8]
300046ac:	e2833001 	add	r3, r3, #1
300046b0:	e50b3008 	str	r3, [fp, #-8]
300046b4:	e51b2008 	ldr	r2, [fp, #-8]
300046b8:	e51b3014 	ldr	r3, [fp, #-20]	; 0xffffffec
300046bc:	e1520003 	cmp	r2, r3
300046c0:	baffffcb 	blt	300045f4 <s3c2440_i2c_contol_tranfer+0x2c>
300046c4:	e59f3014 	ldr	r3, [pc, #20]	; 300046e0 <s3c2440_i2c_contol_tranfer+0x118>
300046c8:	e5933000 	ldr	r3, [r3]
300046cc:	e5933014 	ldr	r3, [r3, #20]
300046d0:	e1a00003 	mov	r0, r3
300046d4:	e28bd000 	add	sp, fp, #0
300046d8:	e49db004 	pop	{fp}		; (ldr fp, [sp], #4)
300046dc:	e1a0f00e 	mov	pc, lr
300046e0:	30007838 	andcc	r7, r0, r8, lsr r8
300046e4:	54000004 	strpl	r0, [r0], #-4
300046e8:	5400000c 	strpl	r0, [r0], #-12

300046ec <s3c2440_i2c_contol_add>:
300046ec:	e92d4800 	push	{fp, lr}
300046f0:	e28db004 	add	fp, sp, #4
300046f4:	e59f0008 	ldr	r0, [pc, #8]	; 30004704 <s3c2440_i2c_contol_add+0x18>
300046f8:	ebfffeac 	bl	300041b0 <i2c_control_register>
300046fc:	e1a00000 	nop			; (mov r0, r0)
30004700:	e8bd8800 	pop	{fp, pc}
30004704:	30007698 	mulcc	r0, r8, r6

30004708 <sd1306_init>:
30004708:	e92d4800 	push	{fp, lr}
3000470c:	e28db004 	add	fp, sp, #4
30004710:	e24dd020 	sub	sp, sp, #32
30004714:	e3e03050 	mvn	r3, #80	; 0x50
30004718:	e54b3009 	strb	r3, [fp, #-9]
3000471c:	e3a0303c 	mov	r3, #60	; 0x3c
30004720:	e54b3024 	strb	r3, [fp, #-36]	; 0xffffffdc
30004724:	e3a03000 	mov	r3, #0
30004728:	e50b3020 	str	r3, [fp, #-32]	; 0xffffffe0
3000472c:	e24b3009 	sub	r3, fp, #9
30004730:	e50b301c 	str	r3, [fp, #-28]	; 0xffffffe4
30004734:	e3a03001 	mov	r3, #1
30004738:	e50b3018 	str	r3, [fp, #-24]	; 0xffffffe8
3000473c:	e3a03000 	mov	r3, #0
30004740:	e50b3014 	str	r3, [fp, #-20]	; 0xffffffec
30004744:	e3a03000 	mov	r3, #0
30004748:	e50b3010 	str	r3, [fp, #-16]
3000474c:	e24b3024 	sub	r3, fp, #36	; 0x24
30004750:	e3a01001 	mov	r1, #1
30004754:	e1a00003 	mov	r0, r3
30004758:	ebfffec6 	bl	30004278 <i2c_tranfer>
3000475c:	e50b0008 	str	r0, [fp, #-8]
30004760:	e51b3008 	ldr	r3, [fp, #-8]
30004764:	e3730001 	cmn	r3, #1
30004768:	1a000002 	bne	30004778 <sd1306_init+0x70>
3000476c:	e59f0018 	ldr	r0, [pc, #24]	; 3000478c <sd1306_init+0x84>
30004770:	ebfff261 	bl	300010fc <puts>
30004774:	ea000001 	b	30004780 <sd1306_init+0x78>
30004778:	e59f0010 	ldr	r0, [pc, #16]	; 30004790 <sd1306_init+0x88>
3000477c:	ebfff25e 	bl	300010fc <puts>
30004780:	e1a00000 	nop			; (mov r0, r0)
30004784:	e24bd004 	sub	sp, fp, #4
30004788:	e8bd8800 	pop	{fp, pc}
3000478c:	30007528 	andcc	r7, r0, r8, lsr #10
30004790:	3000753c 	andcc	r7, r0, ip, lsr r5

30004794 <oled_write_command>:
30004794:	e92d4800 	push	{fp, lr}
30004798:	e28db004 	add	fp, sp, #4
3000479c:	e24dd008 	sub	sp, sp, #8
300047a0:	e1a03000 	mov	r3, r0
300047a4:	e54b3005 	strb	r3, [fp, #-5]
300047a8:	e59f3038 	ldr	r3, [pc, #56]	; 300047e8 <oled_write_command+0x54>
300047ac:	e5933000 	ldr	r3, [r3]
300047b0:	e59f2030 	ldr	r2, [pc, #48]	; 300047e8 <oled_write_command+0x54>
300047b4:	e3c33010 	bic	r3, r3, #16
300047b8:	e5823000 	str	r3, [r2]
300047bc:	e55b3005 	ldrb	r3, [fp, #-5]
300047c0:	e1a00003 	mov	r0, r3
300047c4:	eb000198 	bl	30004e2c <spi_gpio_write_data>
300047c8:	e59f3018 	ldr	r3, [pc, #24]	; 300047e8 <oled_write_command+0x54>
300047cc:	e5933000 	ldr	r3, [r3]
300047d0:	e59f2010 	ldr	r2, [pc, #16]	; 300047e8 <oled_write_command+0x54>
300047d4:	e3833010 	orr	r3, r3, #16
300047d8:	e5823000 	str	r3, [r2]
300047dc:	e1a00000 	nop			; (mov r0, r0)
300047e0:	e24bd004 	sub	sp, fp, #4
300047e4:	e8bd8800 	pop	{fp, pc}
300047e8:	56000064 	strpl	r0, [r0], -r4, rrx

300047ec <oled_write_data>:
300047ec:	e92d4800 	push	{fp, lr}
300047f0:	e28db004 	add	fp, sp, #4
300047f4:	e24dd008 	sub	sp, sp, #8
300047f8:	e1a03000 	mov	r3, r0
300047fc:	e54b3005 	strb	r3, [fp, #-5]
30004800:	e59f3024 	ldr	r3, [pc, #36]	; 3000482c <oled_write_data+0x40>
30004804:	e5933000 	ldr	r3, [r3]
30004808:	e59f201c 	ldr	r2, [pc, #28]	; 3000482c <oled_write_data+0x40>
3000480c:	e3833010 	orr	r3, r3, #16
30004810:	e5823000 	str	r3, [r2]
30004814:	e55b3005 	ldrb	r3, [fp, #-5]
30004818:	e1a00003 	mov	r0, r3
3000481c:	eb000182 	bl	30004e2c <spi_gpio_write_data>
30004820:	e1a00000 	nop			; (mov r0, r0)
30004824:	e24bd004 	sub	sp, fp, #4
30004828:	e8bd8800 	pop	{fp, pc}
3000482c:	56000064 	strpl	r0, [r0], -r4, rrx

30004830 <oled_init>:
30004830:	e92d4800 	push	{fp, lr}
30004834:	e28db004 	add	fp, sp, #4
30004838:	e3a000ae 	mov	r0, #174	; 0xae
3000483c:	ebffffd4 	bl	30004794 <oled_write_command>
30004840:	e3a00000 	mov	r0, #0
30004844:	ebffffd2 	bl	30004794 <oled_write_command>
30004848:	e3a00010 	mov	r0, #16
3000484c:	ebffffd0 	bl	30004794 <oled_write_command>
30004850:	e3a00040 	mov	r0, #64	; 0x40
30004854:	ebffffce 	bl	30004794 <oled_write_command>
30004858:	e3a00081 	mov	r0, #129	; 0x81
3000485c:	ebffffcc 	bl	30004794 <oled_write_command>
30004860:	e3a000cf 	mov	r0, #207	; 0xcf
30004864:	ebffffca 	bl	30004794 <oled_write_command>
30004868:	e3a000a1 	mov	r0, #161	; 0xa1
3000486c:	ebffffc8 	bl	30004794 <oled_write_command>
30004870:	e3a000c8 	mov	r0, #200	; 0xc8
30004874:	ebffffc6 	bl	30004794 <oled_write_command>
30004878:	e3a000a8 	mov	r0, #168	; 0xa8
3000487c:	ebffffc4 	bl	30004794 <oled_write_command>
30004880:	e3a0003f 	mov	r0, #63	; 0x3f
30004884:	ebffffc2 	bl	30004794 <oled_write_command>
30004888:	e3a000d3 	mov	r0, #211	; 0xd3
3000488c:	ebffffc0 	bl	30004794 <oled_write_command>
30004890:	e3a00000 	mov	r0, #0
30004894:	ebffffbe 	bl	30004794 <oled_write_command>
30004898:	e3a000d5 	mov	r0, #213	; 0xd5
3000489c:	ebffffbc 	bl	30004794 <oled_write_command>
300048a0:	e3a00080 	mov	r0, #128	; 0x80
300048a4:	ebffffba 	bl	30004794 <oled_write_command>
300048a8:	e3a000d9 	mov	r0, #217	; 0xd9
300048ac:	ebffffb8 	bl	30004794 <oled_write_command>
300048b0:	e3a000f1 	mov	r0, #241	; 0xf1
300048b4:	ebffffb6 	bl	30004794 <oled_write_command>
300048b8:	e3a000da 	mov	r0, #218	; 0xda
300048bc:	ebffffb4 	bl	30004794 <oled_write_command>
300048c0:	e3a00012 	mov	r0, #18
300048c4:	ebffffb2 	bl	30004794 <oled_write_command>
300048c8:	e3a000db 	mov	r0, #219	; 0xdb
300048cc:	ebffffb0 	bl	30004794 <oled_write_command>
300048d0:	e3a00040 	mov	r0, #64	; 0x40
300048d4:	ebffffae 	bl	30004794 <oled_write_command>
300048d8:	e3a00020 	mov	r0, #32
300048dc:	ebffffac 	bl	30004794 <oled_write_command>
300048e0:	e3a00002 	mov	r0, #2
300048e4:	ebffffaa 	bl	30004794 <oled_write_command>
300048e8:	e3a0008d 	mov	r0, #141	; 0x8d
300048ec:	ebffffa8 	bl	30004794 <oled_write_command>
300048f0:	e3a00014 	mov	r0, #20
300048f4:	ebffffa6 	bl	30004794 <oled_write_command>
300048f8:	e3a000a4 	mov	r0, #164	; 0xa4
300048fc:	ebffffa4 	bl	30004794 <oled_write_command>
30004900:	e3a000a7 	mov	r0, #167	; 0xa7
30004904:	ebffffa2 	bl	30004794 <oled_write_command>
30004908:	e3a000af 	mov	r0, #175	; 0xaf
3000490c:	ebffffa0 	bl	30004794 <oled_write_command>
30004910:	e1a00000 	nop			; (mov r0, r0)
30004914:	e8bd8800 	pop	{fp, pc}

30004918 <s3c2440_spi_control_init>:
30004918:	e52db004 	push	{fp}		; (str fp, [sp, #-4]!)
3000491c:	e28db000 	add	fp, sp, #0
30004920:	e59f303c 	ldr	r3, [pc, #60]	; 30004964 <s3c2440_spi_control_init+0x4c>
30004924:	e5933000 	ldr	r3, [r3]
30004928:	e59f2034 	ldr	r2, [pc, #52]	; 30004964 <s3c2440_spi_control_init+0x4c>
3000492c:	e3833b3f 	orr	r3, r3, #64512	; 0xfc00
30004930:	e5823000 	str	r3, [r2]
30004934:	e59f302c 	ldr	r3, [pc, #44]	; 30004968 <s3c2440_spi_control_init+0x50>
30004938:	e3a02020 	mov	r2, #32
3000493c:	e5832000 	str	r2, [r3]
30004940:	e59f3024 	ldr	r3, [pc, #36]	; 3000496c <s3c2440_spi_control_init+0x54>
30004944:	e5933000 	ldr	r3, [r3]
30004948:	e59f201c 	ldr	r2, [pc, #28]	; 3000496c <s3c2440_spi_control_init+0x54>
3000494c:	e3833018 	orr	r3, r3, #24
30004950:	e5823000 	str	r3, [r2]
30004954:	e1a00000 	nop			; (mov r0, r0)
30004958:	e28bd000 	add	sp, fp, #0
3000495c:	e49db004 	pop	{fp}		; (ldr fp, [sp], #4)
30004960:	e1a0f00e 	mov	pc, lr
30004964:	56000060 	strpl	r0, [r0], -r0, rrx
30004968:	5900002c 	stmdbpl	r0, {r2, r3, r5}
3000496c:	59000020 	stmdbpl	r0, {r5}

30004970 <s3c2440_spi_control_tranfer>:
30004970:	e52db004 	push	{fp}		; (str fp, [sp, #-4]!)
30004974:	e28db000 	add	fp, sp, #0
30004978:	e24dd00c 	sub	sp, sp, #12
3000497c:	e50b0008 	str	r0, [fp, #-8]
30004980:	e51b3008 	ldr	r3, [fp, #-8]
30004984:	e5933000 	ldr	r3, [r3]
30004988:	e3530001 	cmp	r3, #1
3000498c:	1a00001a 	bne	300049fc <s3c2440_spi_control_tranfer+0x8c>
30004990:	ea000014 	b	300049e8 <s3c2440_spi_control_tranfer+0x78>
30004994:	e1a00000 	nop			; (mov r0, r0)
30004998:	e59f30f4 	ldr	r3, [pc, #244]	; 30004a94 <s3c2440_spi_control_tranfer+0x124>
3000499c:	e5933000 	ldr	r3, [r3]
300049a0:	e2033001 	and	r3, r3, #1
300049a4:	e3530000 	cmp	r3, #0
300049a8:	0afffffa 	beq	30004998 <s3c2440_spi_control_tranfer+0x28>
300049ac:	e51b3008 	ldr	r3, [fp, #-8]
300049b0:	e5933004 	ldr	r3, [r3, #4]
300049b4:	e5d32000 	ldrb	r2, [r3]
300049b8:	e59f30d8 	ldr	r3, [pc, #216]	; 30004a98 <s3c2440_spi_control_tranfer+0x128>
300049bc:	e5832000 	str	r2, [r3]
300049c0:	e51b3008 	ldr	r3, [fp, #-8]
300049c4:	e5933008 	ldr	r3, [r3, #8]
300049c8:	e2432001 	sub	r2, r3, #1
300049cc:	e51b3008 	ldr	r3, [fp, #-8]
300049d0:	e5832008 	str	r2, [r3, #8]
300049d4:	e51b3008 	ldr	r3, [fp, #-8]
300049d8:	e5933004 	ldr	r3, [r3, #4]
300049dc:	e2832001 	add	r2, r3, #1
300049e0:	e51b3008 	ldr	r3, [fp, #-8]
300049e4:	e5832004 	str	r2, [r3, #4]
300049e8:	e51b3008 	ldr	r3, [fp, #-8]
300049ec:	e5933008 	ldr	r3, [r3, #8]
300049f0:	e3530000 	cmp	r3, #0
300049f4:	1affffe6 	bne	30004994 <s3c2440_spi_control_tranfer+0x24>
300049f8:	ea000021 	b	30004a84 <s3c2440_spi_control_tranfer+0x114>
300049fc:	e51b3008 	ldr	r3, [fp, #-8]
30004a00:	e5933000 	ldr	r3, [r3]
30004a04:	e3530000 	cmp	r3, #0
30004a08:	1a00001d 	bne	30004a84 <s3c2440_spi_control_tranfer+0x114>
30004a0c:	ea000018 	b	30004a74 <s3c2440_spi_control_tranfer+0x104>
30004a10:	e59f3080 	ldr	r3, [pc, #128]	; 30004a98 <s3c2440_spi_control_tranfer+0x128>
30004a14:	e3a020ff 	mov	r2, #255	; 0xff
30004a18:	e5832000 	str	r2, [r3]
30004a1c:	e1a00000 	nop			; (mov r0, r0)
30004a20:	e59f306c 	ldr	r3, [pc, #108]	; 30004a94 <s3c2440_spi_control_tranfer+0x124>
30004a24:	e5933000 	ldr	r3, [r3]
30004a28:	e2033001 	and	r3, r3, #1
30004a2c:	e3530000 	cmp	r3, #0
30004a30:	0afffffa 	beq	30004a20 <s3c2440_spi_control_tranfer+0xb0>
30004a34:	e59f305c 	ldr	r3, [pc, #92]	; 30004a98 <s3c2440_spi_control_tranfer+0x128>
30004a38:	e5932000 	ldr	r2, [r3]
30004a3c:	e51b3008 	ldr	r3, [fp, #-8]
30004a40:	e5933004 	ldr	r3, [r3, #4]
30004a44:	e20220ff 	and	r2, r2, #255	; 0xff
30004a48:	e5c32000 	strb	r2, [r3]
30004a4c:	e51b3008 	ldr	r3, [fp, #-8]
30004a50:	e5933008 	ldr	r3, [r3, #8]
30004a54:	e2432001 	sub	r2, r3, #1
30004a58:	e51b3008 	ldr	r3, [fp, #-8]
30004a5c:	e5832008 	str	r2, [r3, #8]
30004a60:	e51b3008 	ldr	r3, [fp, #-8]
30004a64:	e5933004 	ldr	r3, [r3, #4]
30004a68:	e2832001 	add	r2, r3, #1
30004a6c:	e51b3008 	ldr	r3, [fp, #-8]
30004a70:	e5832004 	str	r2, [r3, #4]
30004a74:	e51b3008 	ldr	r3, [fp, #-8]
30004a78:	e5933008 	ldr	r3, [r3, #8]
30004a7c:	e3530000 	cmp	r3, #0
30004a80:	1affffe2 	bne	30004a10 <s3c2440_spi_control_tranfer+0xa0>
30004a84:	e1a00000 	nop			; (mov r0, r0)
30004a88:	e28bd000 	add	sp, fp, #0
30004a8c:	e49db004 	pop	{fp}		; (ldr fp, [sp], #4)
30004a90:	e1a0f00e 	mov	pc, lr
30004a94:	59000024 	stmdbpl	r0, {r2, r5}
30004a98:	59000030 	stmdbpl	r0, {r4, r5}

30004a9c <spi_control_register>:
30004a9c:	e52db004 	push	{fp}		; (str fp, [sp, #-4]!)
30004aa0:	e28db000 	add	fp, sp, #0
30004aa4:	e24dd014 	sub	sp, sp, #20
30004aa8:	e50b0010 	str	r0, [fp, #-16]
30004aac:	e3a03000 	mov	r3, #0
30004ab0:	e50b3008 	str	r3, [fp, #-8]
30004ab4:	ea00000d 	b	30004af0 <spi_control_register+0x54>
30004ab8:	e59f2050 	ldr	r2, [pc, #80]	; 30004b10 <spi_control_register+0x74>
30004abc:	e51b3008 	ldr	r3, [fp, #-8]
30004ac0:	e7923103 	ldr	r3, [r2, r3, lsl #2]
30004ac4:	e3530000 	cmp	r3, #0
30004ac8:	1a000005 	bne	30004ae4 <spi_control_register+0x48>
30004acc:	e59f103c 	ldr	r1, [pc, #60]	; 30004b10 <spi_control_register+0x74>
30004ad0:	e51b3008 	ldr	r3, [fp, #-8]
30004ad4:	e51b2010 	ldr	r2, [fp, #-16]
30004ad8:	e7812103 	str	r2, [r1, r3, lsl #2]
30004adc:	e3a03000 	mov	r3, #0
30004ae0:	ea000006 	b	30004b00 <spi_control_register+0x64>
30004ae4:	e51b3008 	ldr	r3, [fp, #-8]
30004ae8:	e2833001 	add	r3, r3, #1
30004aec:	e50b3008 	str	r3, [fp, #-8]
30004af0:	e51b3008 	ldr	r3, [fp, #-8]
30004af4:	e3530009 	cmp	r3, #9
30004af8:	daffffee 	ble	30004ab8 <spi_control_register+0x1c>
30004afc:	e3e03000 	mvn	r3, #0
30004b00:	e1a00003 	mov	r0, r3
30004b04:	e28bd000 	add	sp, fp, #0
30004b08:	e49db004 	pop	{fp}		; (ldr fp, [sp], #4)
30004b0c:	e1a0f00e 	mov	pc, lr
30004b10:	3000783c 	andcc	r7, r0, ip, lsr r8

30004b14 <spi_control_unregister>:
30004b14:	e92d4800 	push	{fp, lr}
30004b18:	e28db004 	add	fp, sp, #4
30004b1c:	e24dd010 	sub	sp, sp, #16
30004b20:	e50b0010 	str	r0, [fp, #-16]
30004b24:	e3a03000 	mov	r3, #0
30004b28:	e50b3008 	str	r3, [fp, #-8]
30004b2c:	ea000017 	b	30004b90 <spi_control_unregister+0x7c>
30004b30:	e59f2074 	ldr	r2, [pc, #116]	; 30004bac <spi_control_unregister+0x98>
30004b34:	e51b3008 	ldr	r3, [fp, #-8]
30004b38:	e7923103 	ldr	r3, [r2, r3, lsl #2]
30004b3c:	e3530000 	cmp	r3, #0
30004b40:	0a00000f 	beq	30004b84 <spi_control_unregister+0x70>
30004b44:	e59f2060 	ldr	r2, [pc, #96]	; 30004bac <spi_control_unregister+0x98>
30004b48:	e51b3008 	ldr	r3, [fp, #-8]
30004b4c:	e7923103 	ldr	r3, [r2, r3, lsl #2]
30004b50:	e5933000 	ldr	r3, [r3]
30004b54:	e51b1010 	ldr	r1, [fp, #-16]
30004b58:	e1a00003 	mov	r0, r3
30004b5c:	ebfff4aa 	bl	30001e0c <strcmp>
30004b60:	e1a03000 	mov	r3, r0
30004b64:	e3530000 	cmp	r3, #0
30004b68:	0a000005 	beq	30004b84 <spi_control_unregister+0x70>
30004b6c:	e59f2038 	ldr	r2, [pc, #56]	; 30004bac <spi_control_unregister+0x98>
30004b70:	e51b3008 	ldr	r3, [fp, #-8]
30004b74:	e3a01000 	mov	r1, #0
30004b78:	e7821103 	str	r1, [r2, r3, lsl #2]
30004b7c:	e3a03000 	mov	r3, #0
30004b80:	ea000006 	b	30004ba0 <spi_control_unregister+0x8c>
30004b84:	e51b3008 	ldr	r3, [fp, #-8]
30004b88:	e2833001 	add	r3, r3, #1
30004b8c:	e50b3008 	str	r3, [fp, #-8]
30004b90:	e51b3008 	ldr	r3, [fp, #-8]
30004b94:	e3530009 	cmp	r3, #9
30004b98:	daffffe4 	ble	30004b30 <spi_control_unregister+0x1c>
30004b9c:	e3e03000 	mvn	r3, #0
30004ba0:	e1a00003 	mov	r0, r3
30004ba4:	e24bd004 	sub	sp, fp, #4
30004ba8:	e8bd8800 	pop	{fp, pc}
30004bac:	3000783c 	andcc	r7, r0, ip, lsr r8

30004bb0 <spi_control_select>:
30004bb0:	e92d4800 	push	{fp, lr}
30004bb4:	e28db004 	add	fp, sp, #4
30004bb8:	e24dd010 	sub	sp, sp, #16
30004bbc:	e50b0010 	str	r0, [fp, #-16]
30004bc0:	e3a03000 	mov	r3, #0
30004bc4:	e50b3008 	str	r3, [fp, #-8]
30004bc8:	ea000018 	b	30004c30 <spi_control_select+0x80>
30004bcc:	e59f2078 	ldr	r2, [pc, #120]	; 30004c4c <spi_control_select+0x9c>
30004bd0:	e51b3008 	ldr	r3, [fp, #-8]
30004bd4:	e7923103 	ldr	r3, [r2, r3, lsl #2]
30004bd8:	e3530000 	cmp	r3, #0
30004bdc:	0a000010 	beq	30004c24 <spi_control_select+0x74>
30004be0:	e59f2064 	ldr	r2, [pc, #100]	; 30004c4c <spi_control_select+0x9c>
30004be4:	e51b3008 	ldr	r3, [fp, #-8]
30004be8:	e7923103 	ldr	r3, [r2, r3, lsl #2]
30004bec:	e5933000 	ldr	r3, [r3]
30004bf0:	e51b1010 	ldr	r1, [fp, #-16]
30004bf4:	e1a00003 	mov	r0, r3
30004bf8:	ebfff483 	bl	30001e0c <strcmp>
30004bfc:	e1a03000 	mov	r3, r0
30004c00:	e3530000 	cmp	r3, #0
30004c04:	1a000006 	bne	30004c24 <spi_control_select+0x74>
30004c08:	e59f203c 	ldr	r2, [pc, #60]	; 30004c4c <spi_control_select+0x9c>
30004c0c:	e51b3008 	ldr	r3, [fp, #-8]
30004c10:	e7923103 	ldr	r3, [r2, r3, lsl #2]
30004c14:	e59f2034 	ldr	r2, [pc, #52]	; 30004c50 <spi_control_select+0xa0>
30004c18:	e5823000 	str	r3, [r2]
30004c1c:	e3a03000 	mov	r3, #0
30004c20:	ea000006 	b	30004c40 <spi_control_select+0x90>
30004c24:	e51b3008 	ldr	r3, [fp, #-8]
30004c28:	e2833001 	add	r3, r3, #1
30004c2c:	e50b3008 	str	r3, [fp, #-8]
30004c30:	e51b3008 	ldr	r3, [fp, #-8]
30004c34:	e3530009 	cmp	r3, #9
30004c38:	daffffe3 	ble	30004bcc <spi_control_select+0x1c>
30004c3c:	e3e03000 	mvn	r3, #0
30004c40:	e1a00003 	mov	r0, r3
30004c44:	e24bd004 	sub	sp, fp, #4
30004c48:	e8bd8800 	pop	{fp, pc}
30004c4c:	3000783c 	andcc	r7, r0, ip, lsr r8
30004c50:	30007864 	andcc	r7, r0, r4, ror #16

30004c54 <spi_control_transfer>:
30004c54:	e92d4800 	push	{fp, lr}
30004c58:	e28db004 	add	fp, sp, #4
30004c5c:	e24dd008 	sub	sp, sp, #8
30004c60:	e50b0008 	str	r0, [fp, #-8]
30004c64:	e59f301c 	ldr	r3, [pc, #28]	; 30004c88 <spi_control_transfer+0x34>
30004c68:	e5933000 	ldr	r3, [r3]
30004c6c:	e5933008 	ldr	r3, [r3, #8]
30004c70:	e51b0008 	ldr	r0, [fp, #-8]
30004c74:	e1a0e00f 	mov	lr, pc
30004c78:	e1a0f003 	mov	pc, r3
30004c7c:	e1a00000 	nop			; (mov r0, r0)
30004c80:	e24bd004 	sub	sp, fp, #4
30004c84:	e8bd8800 	pop	{fp, pc}
30004c88:	30007864 	andcc	r7, r0, r4, ror #16

30004c8c <spi_control_init>:
30004c8c:	e92d4800 	push	{fp, lr}
30004c90:	e28db004 	add	fp, sp, #4
30004c94:	e59f0024 	ldr	r0, [pc, #36]	; 30004cc0 <spi_control_init+0x34>
30004c98:	ebffff7f 	bl	30004a9c <spi_control_register>
30004c9c:	e59f0020 	ldr	r0, [pc, #32]	; 30004cc4 <spi_control_init+0x38>
30004ca0:	ebffffc2 	bl	30004bb0 <spi_control_select>
30004ca4:	e59f301c 	ldr	r3, [pc, #28]	; 30004cc8 <spi_control_init+0x3c>
30004ca8:	e5933000 	ldr	r3, [r3]
30004cac:	e5933004 	ldr	r3, [r3, #4]
30004cb0:	e1a0e00f 	mov	lr, pc
30004cb4:	e1a0f003 	mov	pc, r3
30004cb8:	e1a00000 	nop			; (mov r0, r0)
30004cbc:	e8bd8800 	pop	{fp, pc}
30004cc0:	300076b0 			; <UNDEFINED> instruction: 0x300076b0
30004cc4:	30007554 	andcc	r7, r0, r4, asr r5
30004cc8:	30007864 	andcc	r7, r0, r4, ror #16

30004ccc <spi_gpio_init>:
30004ccc:	e52db004 	push	{fp}		; (str fp, [sp, #-4]!)
30004cd0:	e28db000 	add	fp, sp, #0
30004cd4:	e59f304c 	ldr	r3, [pc, #76]	; 30004d28 <spi_gpio_init+0x5c>
30004cd8:	e5933000 	ldr	r3, [r3]
30004cdc:	e59f2044 	ldr	r2, [pc, #68]	; 30004d28 <spi_gpio_init+0x5c>
30004ce0:	e3c33cff 	bic	r3, r3, #65280	; 0xff00
30004ce4:	e3c33030 	bic	r3, r3, #48	; 0x30
30004ce8:	e5823000 	str	r3, [r2]
30004cec:	e59f3034 	ldr	r3, [pc, #52]	; 30004d28 <spi_gpio_init+0x5c>
30004cf0:	e5933000 	ldr	r3, [r3]
30004cf4:	e59f202c 	ldr	r2, [pc, #44]	; 30004d28 <spi_gpio_init+0x5c>
30004cf8:	e3833c51 	orr	r3, r3, #20736	; 0x5100
30004cfc:	e3833010 	orr	r3, r3, #16
30004d00:	e5823000 	str	r3, [r2]
30004d04:	e59f3020 	ldr	r3, [pc, #32]	; 30004d2c <spi_gpio_init+0x60>
30004d08:	e5933000 	ldr	r3, [r3]
30004d0c:	e59f2018 	ldr	r2, [pc, #24]	; 30004d2c <spi_gpio_init+0x60>
30004d10:	e3833004 	orr	r3, r3, #4
30004d14:	e5823000 	str	r3, [r2]
30004d18:	e1a00000 	nop			; (mov r0, r0)
30004d1c:	e28bd000 	add	sp, fp, #0
30004d20:	e49db004 	pop	{fp}		; (ldr fp, [sp], #4)
30004d24:	e1a0f00e 	mov	pc, lr
30004d28:	56000060 	strpl	r0, [r0], -r0, rrx
30004d2c:	56000064 	strpl	r0, [r0], -r4, rrx

30004d30 <spi_gpio_set_clk_line>:
30004d30:	e52db004 	push	{fp}		; (str fp, [sp, #-4]!)
30004d34:	e28db000 	add	fp, sp, #0
30004d38:	e24dd00c 	sub	sp, sp, #12
30004d3c:	e50b0008 	str	r0, [fp, #-8]
30004d40:	e51b3008 	ldr	r3, [fp, #-8]
30004d44:	e3530001 	cmp	r3, #1
30004d48:	1a000005 	bne	30004d64 <spi_gpio_set_clk_line+0x34>
30004d4c:	e59f3040 	ldr	r3, [pc, #64]	; 30004d94 <spi_gpio_set_clk_line+0x64>
30004d50:	e5933000 	ldr	r3, [r3]
30004d54:	e59f2038 	ldr	r2, [pc, #56]	; 30004d94 <spi_gpio_set_clk_line+0x64>
30004d58:	e3833080 	orr	r3, r3, #128	; 0x80
30004d5c:	e5823000 	str	r3, [r2]
30004d60:	ea000007 	b	30004d84 <spi_gpio_set_clk_line+0x54>
30004d64:	e51b3008 	ldr	r3, [fp, #-8]
30004d68:	e3530000 	cmp	r3, #0
30004d6c:	1a000004 	bne	30004d84 <spi_gpio_set_clk_line+0x54>
30004d70:	e59f301c 	ldr	r3, [pc, #28]	; 30004d94 <spi_gpio_set_clk_line+0x64>
30004d74:	e5933000 	ldr	r3, [r3]
30004d78:	e59f2014 	ldr	r2, [pc, #20]	; 30004d94 <spi_gpio_set_clk_line+0x64>
30004d7c:	e3c33080 	bic	r3, r3, #128	; 0x80
30004d80:	e5823000 	str	r3, [r2]
30004d84:	e1a00000 	nop			; (mov r0, r0)
30004d88:	e28bd000 	add	sp, fp, #0
30004d8c:	e49db004 	pop	{fp}		; (ldr fp, [sp], #4)
30004d90:	e1a0f00e 	mov	pc, lr
30004d94:	56000064 	strpl	r0, [r0], -r4, rrx

30004d98 <spi_gpio_set_data_line>:
30004d98:	e52db004 	push	{fp}		; (str fp, [sp, #-4]!)
30004d9c:	e28db000 	add	fp, sp, #0
30004da0:	e24dd00c 	sub	sp, sp, #12
30004da4:	e50b0008 	str	r0, [fp, #-8]
30004da8:	e51b3008 	ldr	r3, [fp, #-8]
30004dac:	e3530001 	cmp	r3, #1
30004db0:	1a000005 	bne	30004dcc <spi_gpio_set_data_line+0x34>
30004db4:	e59f3040 	ldr	r3, [pc, #64]	; 30004dfc <spi_gpio_set_data_line+0x64>
30004db8:	e5933000 	ldr	r3, [r3]
30004dbc:	e59f2038 	ldr	r2, [pc, #56]	; 30004dfc <spi_gpio_set_data_line+0x64>
30004dc0:	e3833040 	orr	r3, r3, #64	; 0x40
30004dc4:	e5823000 	str	r3, [r2]
30004dc8:	ea000007 	b	30004dec <spi_gpio_set_data_line+0x54>
30004dcc:	e51b3008 	ldr	r3, [fp, #-8]
30004dd0:	e3530000 	cmp	r3, #0
30004dd4:	1a000004 	bne	30004dec <spi_gpio_set_data_line+0x54>
30004dd8:	e59f301c 	ldr	r3, [pc, #28]	; 30004dfc <spi_gpio_set_data_line+0x64>
30004ddc:	e5933000 	ldr	r3, [r3]
30004de0:	e59f2014 	ldr	r2, [pc, #20]	; 30004dfc <spi_gpio_set_data_line+0x64>
30004de4:	e3c33040 	bic	r3, r3, #64	; 0x40
30004de8:	e5823000 	str	r3, [r2]
30004dec:	e1a00000 	nop			; (mov r0, r0)
30004df0:	e28bd000 	add	sp, fp, #0
30004df4:	e49db004 	pop	{fp}		; (ldr fp, [sp], #4)
30004df8:	e1a0f00e 	mov	pc, lr
30004dfc:	56000064 	strpl	r0, [r0], -r4, rrx

30004e00 <spi_gpio_read_data_line>:
30004e00:	e52db004 	push	{fp}		; (str fp, [sp, #-4]!)
30004e04:	e28db000 	add	fp, sp, #0
30004e08:	e59f3018 	ldr	r3, [pc, #24]	; 30004e28 <spi_gpio_read_data_line+0x28>
30004e0c:	e5933000 	ldr	r3, [r3]
30004e10:	e1a032a3 	lsr	r3, r3, #5
30004e14:	e2033001 	and	r3, r3, #1
30004e18:	e1a00003 	mov	r0, r3
30004e1c:	e28bd000 	add	sp, fp, #0
30004e20:	e49db004 	pop	{fp}		; (ldr fp, [sp], #4)
30004e24:	e1a0f00e 	mov	pc, lr
30004e28:	56000064 	strpl	r0, [r0], -r4, rrx

30004e2c <spi_gpio_write_data>:
30004e2c:	e92d4800 	push	{fp, lr}
30004e30:	e28db004 	add	fp, sp, #4
30004e34:	e24dd010 	sub	sp, sp, #16
30004e38:	e1a03000 	mov	r3, r0
30004e3c:	e54b300d 	strb	r3, [fp, #-13]
30004e40:	e3a03000 	mov	r3, #0
30004e44:	e50b3008 	str	r3, [fp, #-8]
30004e48:	ea00000d 	b	30004e84 <spi_gpio_write_data+0x58>
30004e4c:	e3a00000 	mov	r0, #0
30004e50:	ebffffb6 	bl	30004d30 <spi_gpio_set_clk_line>
30004e54:	e55b200d 	ldrb	r2, [fp, #-13]
30004e58:	e51b3008 	ldr	r3, [fp, #-8]
30004e5c:	e2633007 	rsb	r3, r3, #7
30004e60:	e1a03352 	asr	r3, r2, r3
30004e64:	e2033001 	and	r3, r3, #1
30004e68:	e1a00003 	mov	r0, r3
30004e6c:	ebffffc9 	bl	30004d98 <spi_gpio_set_data_line>
30004e70:	e3a00001 	mov	r0, #1
30004e74:	ebffffad 	bl	30004d30 <spi_gpio_set_clk_line>
30004e78:	e51b3008 	ldr	r3, [fp, #-8]
30004e7c:	e2833001 	add	r3, r3, #1
30004e80:	e50b3008 	str	r3, [fp, #-8]
30004e84:	e51b3008 	ldr	r3, [fp, #-8]
30004e88:	e3530007 	cmp	r3, #7
30004e8c:	daffffee 	ble	30004e4c <spi_gpio_write_data+0x20>
30004e90:	e1a00000 	nop			; (mov r0, r0)
30004e94:	e1a00000 	nop			; (mov r0, r0)
30004e98:	e24bd004 	sub	sp, fp, #4
30004e9c:	e8bd8800 	pop	{fp, pc}

30004ea0 <spi_gpio_read_data>:
30004ea0:	e92d4800 	push	{fp, lr}
30004ea4:	e28db004 	add	fp, sp, #4
30004ea8:	e24dd008 	sub	sp, sp, #8
30004eac:	e3a03000 	mov	r3, #0
30004eb0:	e54b3005 	strb	r3, [fp, #-5]
30004eb4:	e3a03000 	mov	r3, #0
30004eb8:	e50b300c 	str	r3, [fp, #-12]
30004ebc:	ea000012 	b	30004f0c <spi_gpio_read_data+0x6c>
30004ec0:	e3a00000 	mov	r0, #0
30004ec4:	ebffff99 	bl	30004d30 <spi_gpio_set_clk_line>
30004ec8:	ebffffcc 	bl	30004e00 <spi_gpio_read_data_line>
30004ecc:	e1a02000 	mov	r2, r0
30004ed0:	e51b300c 	ldr	r3, [fp, #-12]
30004ed4:	e2633007 	rsb	r3, r3, #7
30004ed8:	e1a03312 	lsl	r3, r2, r3
30004edc:	e1a03c03 	lsl	r3, r3, #24
30004ee0:	e1a02c43 	asr	r2, r3, #24
30004ee4:	e15b30d5 	ldrsb	r3, [fp, #-5]
30004ee8:	e1823003 	orr	r3, r2, r3
30004eec:	e1a03c03 	lsl	r3, r3, #24
30004ef0:	e1a03c43 	asr	r3, r3, #24
30004ef4:	e54b3005 	strb	r3, [fp, #-5]
30004ef8:	e3a00001 	mov	r0, #1
30004efc:	ebffff8b 	bl	30004d30 <spi_gpio_set_clk_line>
30004f00:	e51b300c 	ldr	r3, [fp, #-12]
30004f04:	e2833001 	add	r3, r3, #1
30004f08:	e50b300c 	str	r3, [fp, #-12]
30004f0c:	e51b300c 	ldr	r3, [fp, #-12]
30004f10:	e3530007 	cmp	r3, #7
30004f14:	daffffe9 	ble	30004ec0 <spi_gpio_read_data+0x20>
30004f18:	e1a00000 	nop			; (mov r0, r0)
30004f1c:	e1a00003 	mov	r0, r3
30004f20:	e24bd004 	sub	sp, fp, #4
30004f24:	e8bd8800 	pop	{fp, pc}

30004f28 <spi_gpio_transfer>:
30004f28:	e92d4810 	push	{r4, fp, lr}
30004f2c:	e28db008 	add	fp, sp, #8
30004f30:	e24dd00c 	sub	sp, sp, #12
30004f34:	e50b0010 	str	r0, [fp, #-16]
30004f38:	e51b3010 	ldr	r3, [fp, #-16]
30004f3c:	e5933000 	ldr	r3, [r3]
30004f40:	e3530001 	cmp	r3, #1
30004f44:	1a000014 	bne	30004f9c <spi_gpio_transfer+0x74>
30004f48:	ea00000e 	b	30004f88 <spi_gpio_transfer+0x60>
30004f4c:	e51b3010 	ldr	r3, [fp, #-16]
30004f50:	e5933004 	ldr	r3, [r3, #4]
30004f54:	e5d33000 	ldrb	r3, [r3]
30004f58:	e1a00003 	mov	r0, r3
30004f5c:	ebffffb2 	bl	30004e2c <spi_gpio_write_data>
30004f60:	e51b3010 	ldr	r3, [fp, #-16]
30004f64:	e5933008 	ldr	r3, [r3, #8]
30004f68:	e2432001 	sub	r2, r3, #1
30004f6c:	e51b3010 	ldr	r3, [fp, #-16]
30004f70:	e5832008 	str	r2, [r3, #8]
30004f74:	e51b3010 	ldr	r3, [fp, #-16]
30004f78:	e5933004 	ldr	r3, [r3, #4]
30004f7c:	e2832001 	add	r2, r3, #1
30004f80:	e51b3010 	ldr	r3, [fp, #-16]
30004f84:	e5832004 	str	r2, [r3, #4]
30004f88:	e51b3010 	ldr	r3, [fp, #-16]
30004f8c:	e5933008 	ldr	r3, [r3, #8]
30004f90:	e3530000 	cmp	r3, #0
30004f94:	1affffec 	bne	30004f4c <spi_gpio_transfer+0x24>
30004f98:	ea000017 	b	30004ffc <spi_gpio_transfer+0xd4>
30004f9c:	e51b3010 	ldr	r3, [fp, #-16]
30004fa0:	e5933000 	ldr	r3, [r3]
30004fa4:	e3530000 	cmp	r3, #0
30004fa8:	1a000013 	bne	30004ffc <spi_gpio_transfer+0xd4>
30004fac:	ea00000e 	b	30004fec <spi_gpio_transfer+0xc4>
30004fb0:	e51b3010 	ldr	r3, [fp, #-16]
30004fb4:	e5934004 	ldr	r4, [r3, #4]
30004fb8:	ebffffb8 	bl	30004ea0 <spi_gpio_read_data>
30004fbc:	e1a03000 	mov	r3, r0
30004fc0:	e5c43000 	strb	r3, [r4]
30004fc4:	e51b3010 	ldr	r3, [fp, #-16]
30004fc8:	e5933008 	ldr	r3, [r3, #8]
30004fcc:	e2432001 	sub	r2, r3, #1
30004fd0:	e51b3010 	ldr	r3, [fp, #-16]
30004fd4:	e5832008 	str	r2, [r3, #8]
30004fd8:	e51b3010 	ldr	r3, [fp, #-16]
30004fdc:	e5933004 	ldr	r3, [r3, #4]
30004fe0:	e2832001 	add	r2, r3, #1
30004fe4:	e51b3010 	ldr	r3, [fp, #-16]
30004fe8:	e5832004 	str	r2, [r3, #4]
30004fec:	e51b3010 	ldr	r3, [fp, #-16]
30004ff0:	e5933008 	ldr	r3, [r3, #8]
30004ff4:	e3530000 	cmp	r3, #0
30004ff8:	1affffec 	bne	30004fb0 <spi_gpio_transfer+0x88>
30004ffc:	e1a00000 	nop			; (mov r0, r0)
30005000:	e24bd008 	sub	sp, fp, #8
30005004:	e8bd8810 	pop	{r4, fp, pc}

30005008 <spi_test>:
30005008:	e92d4800 	push	{fp, lr}
3000500c:	e28db004 	add	fp, sp, #4
30005010:	e24dd018 	sub	sp, sp, #24
30005014:	e59f2040 	ldr	r2, [pc, #64]	; 3000505c <spi_test+0x54>
30005018:	e24b300c 	sub	r3, fp, #12
3000501c:	e8920003 	ldm	r2, {r0, r1}
30005020:	e5830000 	str	r0, [r3]
30005024:	e2833004 	add	r3, r3, #4
30005028:	e5c31000 	strb	r1, [r3]
3000502c:	e3a03001 	mov	r3, #1
30005030:	e50b3018 	str	r3, [fp, #-24]	; 0xffffffe8
30005034:	e24b300c 	sub	r3, fp, #12
30005038:	e50b3014 	str	r3, [fp, #-20]	; 0xffffffec
3000503c:	e3a03005 	mov	r3, #5
30005040:	e50b3010 	str	r3, [fp, #-16]
30005044:	e24b3018 	sub	r3, fp, #24
30005048:	e1a00003 	mov	r0, r3
3000504c:	ebffff00 	bl	30004c54 <spi_control_transfer>
30005050:	e1a00000 	nop			; (mov r0, r0)
30005054:	e24bd004 	sub	sp, fp, #4
30005058:	e8bd8800 	pop	{fp, pc}
3000505c:	3000756c 	andcc	r7, r0, ip, ror #10

30005060 <dht11_init>:
30005060:	e92d4800 	push	{fp, lr}
30005064:	e28db004 	add	fp, sp, #4
30005068:	eb000005 	bl	30005084 <dht11_data_as_output>
3000506c:	e3a00001 	mov	r0, #1
30005070:	eb000020 	bl	300050f8 <dht11_data_set>
30005074:	e3a00ffa 	mov	r0, #1000	; 0x3e8
30005078:	ebfff2c5 	bl	30001b94 <delay>
3000507c:	e1a00000 	nop			; (mov r0, r0)
30005080:	e8bd8800 	pop	{fp, pc}

30005084 <dht11_data_as_output>:
30005084:	e52db004 	push	{fp}		; (str fp, [sp, #-4]!)
30005088:	e28db000 	add	fp, sp, #0
3000508c:	e59f3030 	ldr	r3, [pc, #48]	; 300050c4 <dht11_data_as_output+0x40>
30005090:	e5933000 	ldr	r3, [r3]
30005094:	e59f2028 	ldr	r2, [pc, #40]	; 300050c4 <dht11_data_as_output+0x40>
30005098:	e3c33a03 	bic	r3, r3, #12288	; 0x3000
3000509c:	e5823000 	str	r3, [r2]
300050a0:	e59f301c 	ldr	r3, [pc, #28]	; 300050c4 <dht11_data_as_output+0x40>
300050a4:	e5933000 	ldr	r3, [r3]
300050a8:	e59f2014 	ldr	r2, [pc, #20]	; 300050c4 <dht11_data_as_output+0x40>
300050ac:	e3833a01 	orr	r3, r3, #4096	; 0x1000
300050b0:	e5823000 	str	r3, [r2]
300050b4:	e1a00000 	nop			; (mov r0, r0)
300050b8:	e28bd000 	add	sp, fp, #0
300050bc:	e49db004 	pop	{fp}		; (ldr fp, [sp], #4)
300050c0:	e1a0f00e 	mov	pc, lr
300050c4:	56000060 	strpl	r0, [r0], -r0, rrx

300050c8 <dht11_data_as_input>:
300050c8:	e52db004 	push	{fp}		; (str fp, [sp, #-4]!)
300050cc:	e28db000 	add	fp, sp, #0
300050d0:	e59f301c 	ldr	r3, [pc, #28]	; 300050f4 <dht11_data_as_input+0x2c>
300050d4:	e5933000 	ldr	r3, [r3]
300050d8:	e59f2014 	ldr	r2, [pc, #20]	; 300050f4 <dht11_data_as_input+0x2c>
300050dc:	e3c33a03 	bic	r3, r3, #12288	; 0x3000
300050e0:	e5823000 	str	r3, [r2]
300050e4:	e1a00000 	nop			; (mov r0, r0)
300050e8:	e28bd000 	add	sp, fp, #0
300050ec:	e49db004 	pop	{fp}		; (ldr fp, [sp], #4)
300050f0:	e1a0f00e 	mov	pc, lr
300050f4:	56000060 	strpl	r0, [r0], -r0, rrx

300050f8 <dht11_data_set>:
300050f8:	e52db004 	push	{fp}		; (str fp, [sp, #-4]!)
300050fc:	e28db000 	add	fp, sp, #0
30005100:	e24dd00c 	sub	sp, sp, #12
30005104:	e50b0008 	str	r0, [fp, #-8]
30005108:	e51b3008 	ldr	r3, [fp, #-8]
3000510c:	e3530001 	cmp	r3, #1
30005110:	1a000005 	bne	3000512c <dht11_data_set+0x34>
30005114:	e59f3040 	ldr	r3, [pc, #64]	; 3000515c <dht11_data_set+0x64>
30005118:	e5933000 	ldr	r3, [r3]
3000511c:	e59f2038 	ldr	r2, [pc, #56]	; 3000515c <dht11_data_set+0x64>
30005120:	e3833040 	orr	r3, r3, #64	; 0x40
30005124:	e5823000 	str	r3, [r2]
30005128:	ea000007 	b	3000514c <dht11_data_set+0x54>
3000512c:	e51b3008 	ldr	r3, [fp, #-8]
30005130:	e3530000 	cmp	r3, #0
30005134:	1a000004 	bne	3000514c <dht11_data_set+0x54>
30005138:	e59f301c 	ldr	r3, [pc, #28]	; 3000515c <dht11_data_set+0x64>
3000513c:	e5933000 	ldr	r3, [r3]
30005140:	e59f2014 	ldr	r2, [pc, #20]	; 3000515c <dht11_data_set+0x64>
30005144:	e3c33040 	bic	r3, r3, #64	; 0x40
30005148:	e5823000 	str	r3, [r2]
3000514c:	e1a00000 	nop			; (mov r0, r0)
30005150:	e28bd000 	add	sp, fp, #0
30005154:	e49db004 	pop	{fp}		; (ldr fp, [sp], #4)
30005158:	e1a0f00e 	mov	pc, lr
3000515c:	56000064 	strpl	r0, [r0], -r4, rrx

30005160 <dht11_data_read>:
30005160:	e52db004 	push	{fp}		; (str fp, [sp, #-4]!)
30005164:	e28db000 	add	fp, sp, #0
30005168:	e59f3018 	ldr	r3, [pc, #24]	; 30005188 <dht11_data_read+0x28>
3000516c:	e5933000 	ldr	r3, [r3]
30005170:	e1a03323 	lsr	r3, r3, #6
30005174:	e2033001 	and	r3, r3, #1
30005178:	e1a00003 	mov	r0, r3
3000517c:	e28bd000 	add	sp, fp, #0
30005180:	e49db004 	pop	{fp}		; (ldr fp, [sp], #4)
30005184:	e1a0f00e 	mov	pc, lr
30005188:	56000064 	strpl	r0, [r0], -r4, rrx

3000518c <dht11_read_temp_and_humidity>:
3000518c:	e92d4800 	push	{fp, lr}
30005190:	e28db004 	add	fp, sp, #4
30005194:	e24dd010 	sub	sp, sp, #16
30005198:	e50b0010 	str	r0, [fp, #-16]
3000519c:	e50b1014 	str	r1, [fp, #-20]	; 0xffffffec
300051a0:	ebffffb7 	bl	30005084 <dht11_data_as_output>
300051a4:	e3a00000 	mov	r0, #0
300051a8:	ebffffd2 	bl	300050f8 <dht11_data_set>
300051ac:	e3a00017 	mov	r0, #23
300051b0:	ebfff277 	bl	30001b94 <delay>
300051b4:	ebffffc3 	bl	300050c8 <dht11_data_as_input>
300051b8:	e3a01ffa 	mov	r1, #1000	; 0x3e8
300051bc:	e3a00000 	mov	r0, #0
300051c0:	eb00004f 	bl	30005304 <dht11_data_wait_sigle>
300051c4:	e1a03000 	mov	r3, r0
300051c8:	e3530000 	cmp	r3, #0
300051cc:	0a000003 	beq	300051e0 <dht11_read_temp_and_humidity+0x54>
300051d0:	e59f0118 	ldr	r0, [pc, #280]	; 300052f0 <dht11_read_temp_and_humidity+0x164>
300051d4:	ebffefc8 	bl	300010fc <puts>
300051d8:	e3e03000 	mvn	r3, #0
300051dc:	ea000040 	b	300052e4 <dht11_read_temp_and_humidity+0x158>
300051e0:	e3a01ffa 	mov	r1, #1000	; 0x3e8
300051e4:	e3a00001 	mov	r0, #1
300051e8:	eb000045 	bl	30005304 <dht11_data_wait_sigle>
300051ec:	e1a03000 	mov	r3, r0
300051f0:	e3530000 	cmp	r3, #0
300051f4:	0a000003 	beq	30005208 <dht11_read_temp_and_humidity+0x7c>
300051f8:	e59f00f4 	ldr	r0, [pc, #244]	; 300052f4 <dht11_read_temp_and_humidity+0x168>
300051fc:	ebffefbe 	bl	300010fc <puts>
30005200:	e3e03000 	mvn	r3, #0
30005204:	ea000036 	b	300052e4 <dht11_read_temp_and_humidity+0x158>
30005208:	eb000055 	bl	30005364 <dht11_data_revice_byte>
3000520c:	e1a03000 	mov	r3, r0
30005210:	e54b3005 	strb	r3, [fp, #-5]
30005214:	eb000052 	bl	30005364 <dht11_data_revice_byte>
30005218:	e1a03000 	mov	r3, r0
3000521c:	e54b3006 	strb	r3, [fp, #-6]
30005220:	eb00004f 	bl	30005364 <dht11_data_revice_byte>
30005224:	e1a03000 	mov	r3, r0
30005228:	e54b3007 	strb	r3, [fp, #-7]
3000522c:	eb00004c 	bl	30005364 <dht11_data_revice_byte>
30005230:	e1a03000 	mov	r3, r0
30005234:	e54b3008 	strb	r3, [fp, #-8]
30005238:	eb000049 	bl	30005364 <dht11_data_revice_byte>
3000523c:	e1a03000 	mov	r3, r0
30005240:	e54b3009 	strb	r3, [fp, #-9]
30005244:	e55b2005 	ldrb	r2, [fp, #-5]
30005248:	e55b3006 	ldrb	r3, [fp, #-6]
3000524c:	e0822003 	add	r2, r2, r3
30005250:	e55b3007 	ldrb	r3, [fp, #-7]
30005254:	e0822003 	add	r2, r2, r3
30005258:	e55b3008 	ldrb	r3, [fp, #-8]
3000525c:	e0822003 	add	r2, r2, r3
30005260:	e55b3009 	ldrb	r3, [fp, #-9]
30005264:	e1520003 	cmp	r2, r3
30005268:	1a00001a 	bne	300052d8 <dht11_read_temp_and_humidity+0x14c>
3000526c:	e55b3008 	ldrb	r3, [fp, #-8]
30005270:	e1a033a3 	lsr	r3, r3, #7
30005274:	e20330ff 	and	r3, r3, #255	; 0xff
30005278:	e2033001 	and	r3, r3, #1
3000527c:	e3530000 	cmp	r3, #0
30005280:	0a000004 	beq	30005298 <dht11_read_temp_and_humidity+0x10c>
30005284:	e55b3007 	ldrb	r3, [fp, #-7]
30005288:	e2632000 	rsb	r2, r3, #0
3000528c:	e51b3010 	ldr	r3, [fp, #-16]
30005290:	e5832000 	str	r2, [r3]
30005294:	ea000002 	b	300052a4 <dht11_read_temp_and_humidity+0x118>
30005298:	e55b2007 	ldrb	r2, [fp, #-7]
3000529c:	e51b3010 	ldr	r3, [fp, #-16]
300052a0:	e5832000 	str	r2, [r3]
300052a4:	e55b2005 	ldrb	r2, [fp, #-5]
300052a8:	e51b3014 	ldr	r3, [fp, #-20]	; 0xffffffec
300052ac:	e5832000 	str	r2, [r3]
300052b0:	e55b3005 	ldrb	r3, [fp, #-5]
300052b4:	e1a01003 	mov	r1, r3
300052b8:	e59f0038 	ldr	r0, [pc, #56]	; 300052f8 <dht11_read_temp_and_humidity+0x16c>
300052bc:	ebfff034 	bl	30001394 <print_data>
300052c0:	e55b3007 	ldrb	r3, [fp, #-7]
300052c4:	e1a01003 	mov	r1, r3
300052c8:	e59f002c 	ldr	r0, [pc, #44]	; 300052fc <dht11_read_temp_and_humidity+0x170>
300052cc:	ebfff030 	bl	30001394 <print_data>
300052d0:	e3a03000 	mov	r3, #0
300052d4:	ea000002 	b	300052e4 <dht11_read_temp_and_humidity+0x158>
300052d8:	e59f0020 	ldr	r0, [pc, #32]	; 30005300 <dht11_read_temp_and_humidity+0x174>
300052dc:	ebffef86 	bl	300010fc <puts>
300052e0:	e3e03000 	mvn	r3, #0
300052e4:	e1a00003 	mov	r0, r3
300052e8:	e24bd004 	sub	sp, fp, #4
300052ec:	e8bd8800 	pop	{fp, pc}
300052f0:	30007574 	andcc	r7, r0, r4, ror r5
300052f4:	30007598 	mulcc	r0, r8, r5
300052f8:	300075bc 			; <UNDEFINED> instruction: 0x300075bc
300052fc:	300075cc 	andcc	r7, r0, ip, asr #11
30005300:	300075dc 	ldrdcc	r7, [r0], -ip

30005304 <dht11_data_wait_sigle>:
30005304:	e92d4800 	push	{fp, lr}
30005308:	e28db004 	add	fp, sp, #4
3000530c:	e24dd008 	sub	sp, sp, #8
30005310:	e50b0008 	str	r0, [fp, #-8]
30005314:	e50b100c 	str	r1, [fp, #-12]
30005318:	ea000008 	b	30005340 <dht11_data_wait_sigle+0x3c>
3000531c:	ebffff8f 	bl	30005160 <dht11_data_read>
30005320:	e1a02000 	mov	r2, r0
30005324:	e51b3008 	ldr	r3, [fp, #-8]
30005328:	e1530002 	cmp	r3, r2
3000532c:	1a000001 	bne	30005338 <dht11_data_wait_sigle+0x34>
30005330:	e3a03000 	mov	r3, #0
30005334:	ea000007 	b	30005358 <dht11_data_wait_sigle+0x54>
30005338:	e3a00001 	mov	r0, #1
3000533c:	ebfff1e5 	bl	30001ad8 <udelay>
30005340:	e51b300c 	ldr	r3, [fp, #-12]
30005344:	e2432001 	sub	r2, r3, #1
30005348:	e50b200c 	str	r2, [fp, #-12]
3000534c:	e3530000 	cmp	r3, #0
30005350:	1afffff1 	bne	3000531c <dht11_data_wait_sigle+0x18>
30005354:	e3e03000 	mvn	r3, #0
30005358:	e1a00003 	mov	r0, r3
3000535c:	e24bd004 	sub	sp, fp, #4
30005360:	e8bd8800 	pop	{fp, pc}

30005364 <dht11_data_revice_byte>:
30005364:	e92d4800 	push	{fp, lr}
30005368:	e28db004 	add	fp, sp, #4
3000536c:	e24dd008 	sub	sp, sp, #8
30005370:	e3a03000 	mov	r3, #0
30005374:	e54b3005 	strb	r3, [fp, #-5]
30005378:	e3a03000 	mov	r3, #0
3000537c:	e50b300c 	str	r3, [fp, #-12]
30005380:	ea000024 	b	30005418 <dht11_data_revice_byte+0xb4>
30005384:	e3a01ffa 	mov	r1, #1000	; 0x3e8
30005388:	e3a00000 	mov	r0, #0
3000538c:	ebffffdc 	bl	30005304 <dht11_data_wait_sigle>
30005390:	e1a03000 	mov	r3, r0
30005394:	e3530000 	cmp	r3, #0
30005398:	0a000003 	beq	300053ac <dht11_data_revice_byte+0x48>
3000539c:	e59f0090 	ldr	r0, [pc, #144]	; 30005434 <dht11_data_revice_byte+0xd0>
300053a0:	ebffef55 	bl	300010fc <puts>
300053a4:	e3a03000 	mov	r3, #0
300053a8:	ea00001e 	b	30005428 <dht11_data_revice_byte+0xc4>
300053ac:	e3a01ffa 	mov	r1, #1000	; 0x3e8
300053b0:	e3a00001 	mov	r0, #1
300053b4:	ebffffd2 	bl	30005304 <dht11_data_wait_sigle>
300053b8:	e1a03000 	mov	r3, r0
300053bc:	e3530000 	cmp	r3, #0
300053c0:	0a000003 	beq	300053d4 <dht11_data_revice_byte+0x70>
300053c4:	e59f006c 	ldr	r0, [pc, #108]	; 30005438 <dht11_data_revice_byte+0xd4>
300053c8:	ebffef4b 	bl	300010fc <puts>
300053cc:	e3a03000 	mov	r3, #0
300053d0:	ea000014 	b	30005428 <dht11_data_revice_byte+0xc4>
300053d4:	e3a00028 	mov	r0, #40	; 0x28
300053d8:	ebfff1be 	bl	30001ad8 <udelay>
300053dc:	e55b3005 	ldrb	r3, [fp, #-5]
300053e0:	e1a03083 	lsl	r3, r3, #1
300053e4:	e54b3005 	strb	r3, [fp, #-5]
300053e8:	ebffff5c 	bl	30005160 <dht11_data_read>
300053ec:	e1a03000 	mov	r3, r0
300053f0:	e1a03c03 	lsl	r3, r3, #24
300053f4:	e1a02c43 	asr	r2, r3, #24
300053f8:	e15b30d5 	ldrsb	r3, [fp, #-5]
300053fc:	e1823003 	orr	r3, r2, r3
30005400:	e1a03c03 	lsl	r3, r3, #24
30005404:	e1a03c43 	asr	r3, r3, #24
30005408:	e54b3005 	strb	r3, [fp, #-5]
3000540c:	e51b300c 	ldr	r3, [fp, #-12]
30005410:	e2833001 	add	r3, r3, #1
30005414:	e50b300c 	str	r3, [fp, #-12]
30005418:	e51b300c 	ldr	r3, [fp, #-12]
3000541c:	e3530007 	cmp	r3, #7
30005420:	daffffd7 	ble	30005384 <dht11_data_revice_byte+0x20>
30005424:	e55b3005 	ldrb	r3, [fp, #-5]
30005428:	e1a00003 	mov	r0, r3
3000542c:	e24bd004 	sub	sp, fp, #4
30005430:	e8bd8800 	pop	{fp, pc}
30005434:	300075f8 	strdcc	r7, [r0], -r8
30005438:	3000761c 	andcc	r7, r0, ip, lsl r6
3000543c:	e92d4070 	push	{r4, r5, r6, lr}
30005440:	e3a0c0ff 	mov	ip, #255	; 0xff
30005444:	e38ccc07 	orr	ip, ip, #1792	; 0x700
30005448:	e01c4a21 	ands	r4, ip, r1, lsr #20
3000544c:	101c5a23 	andsne	r5, ip, r3, lsr #20
30005450:	1134000c 	teqne	r4, ip
30005454:	1135000c 	teqne	r5, ip
30005458:	0b000075 	bleq	30005634 <dht11_data_revice_byte+0x2d0>
3000545c:	e0844005 	add	r4, r4, r5
30005460:	e0216003 	eor	r6, r1, r3
30005464:	e1c11a8c 	bic	r1, r1, ip, lsl #21
30005468:	e1c33a8c 	bic	r3, r3, ip, lsl #21
3000546c:	e1905601 	orrs	r5, r0, r1, lsl #12
30005470:	11925603 	orrsne	r5, r2, r3, lsl #12
30005474:	e3811601 	orr	r1, r1, #1048576	; 0x100000
30005478:	e3833601 	orr	r3, r3, #1048576	; 0x100000
3000547c:	0a00001d 	beq	300054f8 <dht11_data_revice_byte+0x194>
30005480:	e08ec290 	umull	ip, lr, r0, r2
30005484:	e3a05000 	mov	r5, #0
30005488:	e0a5e291 	umlal	lr, r5, r1, r2
3000548c:	e2062102 	and	r2, r6, #-2147483648	; 0x80000000
30005490:	e0a5e390 	umlal	lr, r5, r0, r3
30005494:	e3a06000 	mov	r6, #0
30005498:	e0a65391 	umlal	r5, r6, r1, r3
3000549c:	e33c0000 	teq	ip, #0
300054a0:	138ee001 	orrne	lr, lr, #1
300054a4:	e24440ff 	sub	r4, r4, #255	; 0xff
300054a8:	e3560c02 	cmp	r6, #512	; 0x200
300054ac:	e2c44c03 	sbc	r4, r4, #768	; 0x300
300054b0:	2a000002 	bcs	300054c0 <dht11_data_revice_byte+0x15c>
300054b4:	e1b0e08e 	lsls	lr, lr, #1
300054b8:	e0b55005 	adcs	r5, r5, r5
300054bc:	e0a66006 	adc	r6, r6, r6
300054c0:	e1821586 	orr	r1, r2, r6, lsl #11
300054c4:	e1811aa5 	orr	r1, r1, r5, lsr #21
300054c8:	e1a00585 	lsl	r0, r5, #11
300054cc:	e1800aae 	orr	r0, r0, lr, lsr #21
300054d0:	e1a0e58e 	lsl	lr, lr, #11
300054d4:	e254c0fd 	subs	ip, r4, #253	; 0xfd
300054d8:	835c0c07 	cmphi	ip, #1792	; 0x700
300054dc:	8a000011 	bhi	30005528 <dht11_data_revice_byte+0x1c4>
300054e0:	e35e0102 	cmp	lr, #-2147483648	; 0x80000000
300054e4:	01b0e0a0 	lsrseq	lr, r0, #1
300054e8:	e2b00000 	adcs	r0, r0, #0
300054ec:	e0a11a04 	adc	r1, r1, r4, lsl #20
300054f0:	e8bd4070 	pop	{r4, r5, r6, lr}
300054f4:	e12fff1e 	bx	lr
300054f8:	e2066102 	and	r6, r6, #-2147483648	; 0x80000000
300054fc:	e1861001 	orr	r1, r6, r1
30005500:	e1800002 	orr	r0, r0, r2
30005504:	e0211003 	eor	r1, r1, r3
30005508:	e05440ac 	subs	r4, r4, ip, lsr #1
3000550c:	c074500c 	rsbsgt	r5, r4, ip
30005510:	c1811a04 	orrgt	r1, r1, r4, lsl #20
30005514:	c8bd4070 	popgt	{r4, r5, r6, lr}
30005518:	c12fff1e 	bxgt	lr
3000551c:	e3811601 	orr	r1, r1, #1048576	; 0x100000
30005520:	e3a0e000 	mov	lr, #0
30005524:	e2544001 	subs	r4, r4, #1
30005528:	ca00005d 	bgt	300056a4 <dht11_data_revice_byte+0x340>
3000552c:	e3740036 	cmn	r4, #54	; 0x36
30005530:	d3a00000 	movle	r0, #0
30005534:	d2011102 	andle	r1, r1, #-2147483648	; 0x80000000
30005538:	d8bd4070 	pople	{r4, r5, r6, lr}
3000553c:	d12fff1e 	bxle	lr
30005540:	e2644000 	rsb	r4, r4, #0
30005544:	e2544020 	subs	r4, r4, #32
30005548:	aa00001a 	bge	300055b8 <dht11_data_revice_byte+0x254>
3000554c:	e294400c 	adds	r4, r4, #12
30005550:	ca00000c 	bgt	30005588 <dht11_data_revice_byte+0x224>
30005554:	e2844014 	add	r4, r4, #20
30005558:	e2645020 	rsb	r5, r4, #32
3000555c:	e1a03510 	lsl	r3, r0, r5
30005560:	e1a00430 	lsr	r0, r0, r4
30005564:	e1800511 	orr	r0, r0, r1, lsl r5
30005568:	e2012102 	and	r2, r1, #-2147483648	; 0x80000000
3000556c:	e3c11102 	bic	r1, r1, #-2147483648	; 0x80000000
30005570:	e0900fa3 	adds	r0, r0, r3, lsr #31
30005574:	e0a21431 	adc	r1, r2, r1, lsr r4
30005578:	e19ee083 	orrs	lr, lr, r3, lsl #1
3000557c:	01c00fa3 	biceq	r0, r0, r3, lsr #31
30005580:	e8bd4070 	pop	{r4, r5, r6, lr}
30005584:	e12fff1e 	bx	lr
30005588:	e264400c 	rsb	r4, r4, #12
3000558c:	e2645020 	rsb	r5, r4, #32
30005590:	e1a03410 	lsl	r3, r0, r4
30005594:	e1a00530 	lsr	r0, r0, r5
30005598:	e1800411 	orr	r0, r0, r1, lsl r4
3000559c:	e2011102 	and	r1, r1, #-2147483648	; 0x80000000
300055a0:	e0900fa3 	adds	r0, r0, r3, lsr #31
300055a4:	e2a11000 	adc	r1, r1, #0
300055a8:	e19ee083 	orrs	lr, lr, r3, lsl #1
300055ac:	01c00fa3 	biceq	r0, r0, r3, lsr #31
300055b0:	e8bd4070 	pop	{r4, r5, r6, lr}
300055b4:	e12fff1e 	bx	lr
300055b8:	e2645020 	rsb	r5, r4, #32
300055bc:	e18ee510 	orr	lr, lr, r0, lsl r5
300055c0:	e1a03430 	lsr	r3, r0, r4
300055c4:	e1833511 	orr	r3, r3, r1, lsl r5
300055c8:	e1a00431 	lsr	r0, r1, r4
300055cc:	e2011102 	and	r1, r1, #-2147483648	; 0x80000000
300055d0:	e1c00431 	bic	r0, r0, r1, lsr r4
300055d4:	e0800fa3 	add	r0, r0, r3, lsr #31
300055d8:	e19ee083 	orrs	lr, lr, r3, lsl #1
300055dc:	01c00fa3 	biceq	r0, r0, r3, lsr #31
300055e0:	e8bd4070 	pop	{r4, r5, r6, lr}
300055e4:	e12fff1e 	bx	lr
300055e8:	e3340000 	teq	r4, #0
300055ec:	1a000008 	bne	30005614 <dht11_data_revice_byte+0x2b0>
300055f0:	e2016102 	and	r6, r1, #-2147483648	; 0x80000000
300055f4:	e1b00080 	lsls	r0, r0, #1
300055f8:	e0a11001 	adc	r1, r1, r1
300055fc:	e3110601 	tst	r1, #1048576	; 0x100000
30005600:	02444001 	subeq	r4, r4, #1
30005604:	0afffffa 	beq	300055f4 <dht11_data_revice_byte+0x290>
30005608:	e1811006 	orr	r1, r1, r6
3000560c:	e3350000 	teq	r5, #0
30005610:	112fff1e 	bxne	lr
30005614:	e2036102 	and	r6, r3, #-2147483648	; 0x80000000
30005618:	e1b02082 	lsls	r2, r2, #1
3000561c:	e0a33003 	adc	r3, r3, r3
30005620:	e3130601 	tst	r3, #1048576	; 0x100000
30005624:	02455001 	subeq	r5, r5, #1
30005628:	0afffffa 	beq	30005618 <dht11_data_revice_byte+0x2b4>
3000562c:	e1833006 	orr	r3, r3, r6
30005630:	e12fff1e 	bx	lr
30005634:	e134000c 	teq	r4, ip
30005638:	e00c5a23 	and	r5, ip, r3, lsr #20
3000563c:	1135000c 	teqne	r5, ip
30005640:	0a000007 	beq	30005664 <dht11_data_revice_byte+0x300>
30005644:	e1906081 	orrs	r6, r0, r1, lsl #1
30005648:	11926083 	orrsne	r6, r2, r3, lsl #1
3000564c:	1affffe5 	bne	300055e8 <dht11_data_revice_byte+0x284>
30005650:	e0211003 	eor	r1, r1, r3
30005654:	e2011102 	and	r1, r1, #-2147483648	; 0x80000000
30005658:	e3a00000 	mov	r0, #0
3000565c:	e8bd4070 	pop	{r4, r5, r6, lr}
30005660:	e12fff1e 	bx	lr
30005664:	e1906081 	orrs	r6, r0, r1, lsl #1
30005668:	01a00002 	moveq	r0, r2
3000566c:	01a01003 	moveq	r1, r3
30005670:	11926083 	orrsne	r6, r2, r3, lsl #1
30005674:	0a000010 	beq	300056bc <dht11_data_revice_byte+0x358>
30005678:	e134000c 	teq	r4, ip
3000567c:	1a000001 	bne	30005688 <dht11_data_revice_byte+0x324>
30005680:	e1906601 	orrs	r6, r0, r1, lsl #12
30005684:	1a00000c 	bne	300056bc <dht11_data_revice_byte+0x358>
30005688:	e135000c 	teq	r5, ip
3000568c:	1a000003 	bne	300056a0 <dht11_data_revice_byte+0x33c>
30005690:	e1926603 	orrs	r6, r2, r3, lsl #12
30005694:	11a00002 	movne	r0, r2
30005698:	11a01003 	movne	r1, r3
3000569c:	1a000006 	bne	300056bc <dht11_data_revice_byte+0x358>
300056a0:	e0211003 	eor	r1, r1, r3
300056a4:	e2011102 	and	r1, r1, #-2147483648	; 0x80000000
300056a8:	e381147f 	orr	r1, r1, #2130706432	; 0x7f000000
300056ac:	e381160f 	orr	r1, r1, #15728640	; 0xf00000
300056b0:	e3a00000 	mov	r0, #0
300056b4:	e8bd4070 	pop	{r4, r5, r6, lr}
300056b8:	e12fff1e 	bx	lr
300056bc:	e381147f 	orr	r1, r1, #2130706432	; 0x7f000000
300056c0:	e381173e 	orr	r1, r1, #16252928	; 0xf80000
300056c4:	e8bd4070 	pop	{r4, r5, r6, lr}
300056c8:	e12fff1e 	bx	lr

300056cc <__divsi3>:
300056cc:	e3510000 	cmp	r1, #0
300056d0:	0a000043 	beq	300057e4 <.divsi3_skip_div0_test+0x110>

300056d4 <.divsi3_skip_div0_test>:
300056d4:	e020c001 	eor	ip, r0, r1
300056d8:	42611000 	rsbmi	r1, r1, #0
300056dc:	e2512001 	subs	r2, r1, #1
300056e0:	0a000027 	beq	30005784 <.divsi3_skip_div0_test+0xb0>
300056e4:	e1b03000 	movs	r3, r0
300056e8:	42603000 	rsbmi	r3, r0, #0
300056ec:	e1530001 	cmp	r3, r1
300056f0:	9a000026 	bls	30005790 <.divsi3_skip_div0_test+0xbc>
300056f4:	e1110002 	tst	r1, r2
300056f8:	0a000028 	beq	300057a0 <.divsi3_skip_div0_test+0xcc>
300056fc:	e311020e 	tst	r1, #-536870912	; 0xe0000000
30005700:	01a01181 	lsleq	r1, r1, #3
30005704:	03a02008 	moveq	r2, #8
30005708:	13a02001 	movne	r2, #1
3000570c:	e3510201 	cmp	r1, #268435456	; 0x10000000
30005710:	31510003 	cmpcc	r1, r3
30005714:	31a01201 	lslcc	r1, r1, #4
30005718:	31a02202 	lslcc	r2, r2, #4
3000571c:	3afffffa 	bcc	3000570c <.divsi3_skip_div0_test+0x38>
30005720:	e3510102 	cmp	r1, #-2147483648	; 0x80000000
30005724:	31510003 	cmpcc	r1, r3
30005728:	31a01081 	lslcc	r1, r1, #1
3000572c:	31a02082 	lslcc	r2, r2, #1
30005730:	3afffffa 	bcc	30005720 <.divsi3_skip_div0_test+0x4c>
30005734:	e3a00000 	mov	r0, #0
30005738:	e1530001 	cmp	r3, r1
3000573c:	20433001 	subcs	r3, r3, r1
30005740:	21800002 	orrcs	r0, r0, r2
30005744:	e15300a1 	cmp	r3, r1, lsr #1
30005748:	204330a1 	subcs	r3, r3, r1, lsr #1
3000574c:	218000a2 	orrcs	r0, r0, r2, lsr #1
30005750:	e1530121 	cmp	r3, r1, lsr #2
30005754:	20433121 	subcs	r3, r3, r1, lsr #2
30005758:	21800122 	orrcs	r0, r0, r2, lsr #2
3000575c:	e15301a1 	cmp	r3, r1, lsr #3
30005760:	204331a1 	subcs	r3, r3, r1, lsr #3
30005764:	218001a2 	orrcs	r0, r0, r2, lsr #3
30005768:	e3530000 	cmp	r3, #0
3000576c:	11b02222 	lsrsne	r2, r2, #4
30005770:	11a01221 	lsrne	r1, r1, #4
30005774:	1affffef 	bne	30005738 <.divsi3_skip_div0_test+0x64>
30005778:	e35c0000 	cmp	ip, #0
3000577c:	42600000 	rsbmi	r0, r0, #0
30005780:	e12fff1e 	bx	lr
30005784:	e13c0000 	teq	ip, r0
30005788:	42600000 	rsbmi	r0, r0, #0
3000578c:	e12fff1e 	bx	lr
30005790:	33a00000 	movcc	r0, #0
30005794:	01a00fcc 	asreq	r0, ip, #31
30005798:	03800001 	orreq	r0, r0, #1
3000579c:	e12fff1e 	bx	lr
300057a0:	e3510801 	cmp	r1, #65536	; 0x10000
300057a4:	21a01821 	lsrcs	r1, r1, #16
300057a8:	23a02010 	movcs	r2, #16
300057ac:	33a02000 	movcc	r2, #0
300057b0:	e3510c01 	cmp	r1, #256	; 0x100
300057b4:	21a01421 	lsrcs	r1, r1, #8
300057b8:	22822008 	addcs	r2, r2, #8
300057bc:	e3510010 	cmp	r1, #16
300057c0:	21a01221 	lsrcs	r1, r1, #4
300057c4:	22822004 	addcs	r2, r2, #4
300057c8:	e3510004 	cmp	r1, #4
300057cc:	82822003 	addhi	r2, r2, #3
300057d0:	908220a1 	addls	r2, r2, r1, lsr #1
300057d4:	e35c0000 	cmp	ip, #0
300057d8:	e1a00233 	lsr	r0, r3, r2
300057dc:	42600000 	rsbmi	r0, r0, #0
300057e0:	e12fff1e 	bx	lr
300057e4:	e3500000 	cmp	r0, #0
300057e8:	c3e00102 	mvngt	r0, #-2147483648	; 0x80000000
300057ec:	b3a00102 	movlt	r0, #-2147483648	; 0x80000000
300057f0:	ea000007 	b	30005814 <__aeabi_idiv0>

300057f4 <__aeabi_idivmod>:
300057f4:	e3510000 	cmp	r1, #0
300057f8:	0afffff9 	beq	300057e4 <.divsi3_skip_div0_test+0x110>
300057fc:	e92d4003 	push	{r0, r1, lr}
30005800:	ebffffb3 	bl	300056d4 <.divsi3_skip_div0_test>
30005804:	e8bd4006 	pop	{r1, r2, lr}
30005808:	e0030092 	mul	r3, r2, r0
3000580c:	e0411003 	sub	r1, r1, r3
30005810:	e12fff1e 	bx	lr

30005814 <__aeabi_idiv0>:
30005814:	e12fff1e 	bx	lr

30005818 <__aeabi_drsub>:
30005818:	e2211102 	eor	r1, r1, #-2147483648	; 0x80000000
3000581c:	ea000000 	b	30005824 <__adddf3>

30005820 <__aeabi_dsub>:
30005820:	e2233102 	eor	r3, r3, #-2147483648	; 0x80000000

30005824 <__adddf3>:
30005824:	e92d4030 	push	{r4, r5, lr}
30005828:	e1a04081 	lsl	r4, r1, #1
3000582c:	e1a05083 	lsl	r5, r3, #1
30005830:	e1340005 	teq	r4, r5
30005834:	01300002 	teqeq	r0, r2
30005838:	1194c000 	orrsne	ip, r4, r0
3000583c:	1195c002 	orrsne	ip, r5, r2
30005840:	11f0cac4 	mvnsne	ip, r4, asr #21
30005844:	11f0cac5 	mvnsne	ip, r5, asr #21
30005848:	0a00008c 	beq	30005a80 <__adddf3+0x25c>
3000584c:	e1a04aa4 	lsr	r4, r4, #21
30005850:	e0745aa5 	rsbs	r5, r4, r5, lsr #21
30005854:	b2655000 	rsblt	r5, r5, #0
30005858:	da000006 	ble	30005878 <__adddf3+0x54>
3000585c:	e0844005 	add	r4, r4, r5
30005860:	e0202002 	eor	r2, r0, r2
30005864:	e0213003 	eor	r3, r1, r3
30005868:	e0220000 	eor	r0, r2, r0
3000586c:	e0231001 	eor	r1, r3, r1
30005870:	e0202002 	eor	r2, r0, r2
30005874:	e0213003 	eor	r3, r1, r3
30005878:	e3550036 	cmp	r5, #54	; 0x36
3000587c:	88bd4030 	pophi	{r4, r5, lr}
30005880:	812fff1e 	bxhi	lr
30005884:	e3110102 	tst	r1, #-2147483648	; 0x80000000
30005888:	e1a01601 	lsl	r1, r1, #12
3000588c:	e3a0c601 	mov	ip, #1048576	; 0x100000
30005890:	e18c1621 	orr	r1, ip, r1, lsr #12
30005894:	0a000001 	beq	300058a0 <__adddf3+0x7c>
30005898:	e2700000 	rsbs	r0, r0, #0
3000589c:	e2e11000 	rsc	r1, r1, #0
300058a0:	e3130102 	tst	r3, #-2147483648	; 0x80000000
300058a4:	e1a03603 	lsl	r3, r3, #12
300058a8:	e18c3623 	orr	r3, ip, r3, lsr #12
300058ac:	0a000001 	beq	300058b8 <__adddf3+0x94>
300058b0:	e2722000 	rsbs	r2, r2, #0
300058b4:	e2e33000 	rsc	r3, r3, #0
300058b8:	e1340005 	teq	r4, r5
300058bc:	0a000069 	beq	30005a68 <__adddf3+0x244>
300058c0:	e2444001 	sub	r4, r4, #1
300058c4:	e275e020 	rsbs	lr, r5, #32
300058c8:	ba000005 	blt	300058e4 <__adddf3+0xc0>
300058cc:	e1a0ce12 	lsl	ip, r2, lr
300058d0:	e0900532 	adds	r0, r0, r2, lsr r5
300058d4:	e2a11000 	adc	r1, r1, #0
300058d8:	e0900e13 	adds	r0, r0, r3, lsl lr
300058dc:	e0b11553 	adcs	r1, r1, r3, asr r5
300058e0:	ea000006 	b	30005900 <__adddf3+0xdc>
300058e4:	e2455020 	sub	r5, r5, #32
300058e8:	e28ee020 	add	lr, lr, #32
300058ec:	e3520001 	cmp	r2, #1
300058f0:	e1a0ce13 	lsl	ip, r3, lr
300058f4:	238cc002 	orrcs	ip, ip, #2
300058f8:	e0900553 	adds	r0, r0, r3, asr r5
300058fc:	e0b11fc3 	adcs	r1, r1, r3, asr #31
30005900:	e2015102 	and	r5, r1, #-2147483648	; 0x80000000
30005904:	5a000002 	bpl	30005914 <__adddf3+0xf0>
30005908:	e27cc000 	rsbs	ip, ip, #0
3000590c:	e2f00000 	rscs	r0, r0, #0
30005910:	e2e11000 	rsc	r1, r1, #0
30005914:	e3510601 	cmp	r1, #1048576	; 0x100000
30005918:	3a00000f 	bcc	3000595c <__adddf3+0x138>
3000591c:	e3510602 	cmp	r1, #2097152	; 0x200000
30005920:	3a000006 	bcc	30005940 <__adddf3+0x11c>
30005924:	e1b010a1 	lsrs	r1, r1, #1
30005928:	e1b00060 	rrxs	r0, r0
3000592c:	e1a0c06c 	rrx	ip, ip
30005930:	e2844001 	add	r4, r4, #1
30005934:	e1a02a84 	lsl	r2, r4, #21
30005938:	e3720501 	cmn	r2, #4194304	; 0x400000
3000593c:	2a00006b 	bcs	30005af0 <__adddf3+0x2cc>
30005940:	e35c0102 	cmp	ip, #-2147483648	; 0x80000000
30005944:	01b0c0a0 	lsrseq	ip, r0, #1
30005948:	e2b00000 	adcs	r0, r0, #0
3000594c:	e0a11a04 	adc	r1, r1, r4, lsl #20
30005950:	e1811005 	orr	r1, r1, r5
30005954:	e8bd4030 	pop	{r4, r5, lr}
30005958:	e12fff1e 	bx	lr
3000595c:	e1b0c08c 	lsls	ip, ip, #1
30005960:	e0b00000 	adcs	r0, r0, r0
30005964:	e0a11001 	adc	r1, r1, r1
30005968:	e2544001 	subs	r4, r4, #1
3000596c:	23510601 	cmpcs	r1, #1048576	; 0x100000
30005970:	2afffff2 	bcs	30005940 <__adddf3+0x11c>
30005974:	e3310000 	teq	r1, #0
30005978:	13a03014 	movne	r3, #20
3000597c:	03a03034 	moveq	r3, #52	; 0x34
30005980:	01a01000 	moveq	r1, r0
30005984:	03a00000 	moveq	r0, #0
30005988:	e1a02001 	mov	r2, r1
3000598c:	e3520801 	cmp	r2, #65536	; 0x10000
30005990:	21a02822 	lsrcs	r2, r2, #16
30005994:	22433010 	subcs	r3, r3, #16
30005998:	e3520c01 	cmp	r2, #256	; 0x100
3000599c:	21a02422 	lsrcs	r2, r2, #8
300059a0:	22433008 	subcs	r3, r3, #8
300059a4:	e3520010 	cmp	r2, #16
300059a8:	21a02222 	lsrcs	r2, r2, #4
300059ac:	22433004 	subcs	r3, r3, #4
300059b0:	e3520004 	cmp	r2, #4
300059b4:	22433002 	subcs	r3, r3, #2
300059b8:	304330a2 	subcc	r3, r3, r2, lsr #1
300059bc:	e04331a2 	sub	r3, r3, r2, lsr #3
300059c0:	e2532020 	subs	r2, r3, #32
300059c4:	aa000007 	bge	300059e8 <__adddf3+0x1c4>
300059c8:	e292200c 	adds	r2, r2, #12
300059cc:	da000004 	ble	300059e4 <__adddf3+0x1c0>
300059d0:	e282c014 	add	ip, r2, #20
300059d4:	e262200c 	rsb	r2, r2, #12
300059d8:	e1a00c11 	lsl	r0, r1, ip
300059dc:	e1a01231 	lsr	r1, r1, r2
300059e0:	ea000004 	b	300059f8 <__adddf3+0x1d4>
300059e4:	e2822014 	add	r2, r2, #20
300059e8:	d262c020 	rsble	ip, r2, #32
300059ec:	e1a01211 	lsl	r1, r1, r2
300059f0:	d1811c30 	orrle	r1, r1, r0, lsr ip
300059f4:	d1a00210 	lslle	r0, r0, r2
300059f8:	e0544003 	subs	r4, r4, r3
300059fc:	a0811a04 	addge	r1, r1, r4, lsl #20
30005a00:	a1811005 	orrge	r1, r1, r5
30005a04:	a8bd4030 	popge	{r4, r5, lr}
30005a08:	a12fff1e 	bxge	lr
30005a0c:	e1e04004 	mvn	r4, r4
30005a10:	e254401f 	subs	r4, r4, #31
30005a14:	aa00000f 	bge	30005a58 <__adddf3+0x234>
30005a18:	e294400c 	adds	r4, r4, #12
30005a1c:	ca000006 	bgt	30005a3c <__adddf3+0x218>
30005a20:	e2844014 	add	r4, r4, #20
30005a24:	e2642020 	rsb	r2, r4, #32
30005a28:	e1a00430 	lsr	r0, r0, r4
30005a2c:	e1800211 	orr	r0, r0, r1, lsl r2
30005a30:	e1851431 	orr	r1, r5, r1, lsr r4
30005a34:	e8bd4030 	pop	{r4, r5, lr}
30005a38:	e12fff1e 	bx	lr
30005a3c:	e264400c 	rsb	r4, r4, #12
30005a40:	e2642020 	rsb	r2, r4, #32
30005a44:	e1a00230 	lsr	r0, r0, r2
30005a48:	e1800411 	orr	r0, r0, r1, lsl r4
30005a4c:	e1a01005 	mov	r1, r5
30005a50:	e8bd4030 	pop	{r4, r5, lr}
30005a54:	e12fff1e 	bx	lr
30005a58:	e1a00431 	lsr	r0, r1, r4
30005a5c:	e1a01005 	mov	r1, r5
30005a60:	e8bd4030 	pop	{r4, r5, lr}
30005a64:	e12fff1e 	bx	lr
30005a68:	e3340000 	teq	r4, #0
30005a6c:	e2233601 	eor	r3, r3, #1048576	; 0x100000
30005a70:	02211601 	eoreq	r1, r1, #1048576	; 0x100000
30005a74:	02844001 	addeq	r4, r4, #1
30005a78:	12455001 	subne	r5, r5, #1
30005a7c:	eaffff8f 	b	300058c0 <__adddf3+0x9c>
30005a80:	e1f0cac4 	mvns	ip, r4, asr #21
30005a84:	11f0cac5 	mvnsne	ip, r5, asr #21
30005a88:	0a00001d 	beq	30005b04 <__adddf3+0x2e0>
30005a8c:	e1340005 	teq	r4, r5
30005a90:	01300002 	teqeq	r0, r2
30005a94:	0a000004 	beq	30005aac <__adddf3+0x288>
30005a98:	e194c000 	orrs	ip, r4, r0
30005a9c:	01a01003 	moveq	r1, r3
30005aa0:	01a00002 	moveq	r0, r2
30005aa4:	e8bd4030 	pop	{r4, r5, lr}
30005aa8:	e12fff1e 	bx	lr
30005aac:	e1310003 	teq	r1, r3
30005ab0:	13a01000 	movne	r1, #0
30005ab4:	13a00000 	movne	r0, #0
30005ab8:	18bd4030 	popne	{r4, r5, lr}
30005abc:	112fff1e 	bxne	lr
30005ac0:	e1b0caa4 	lsrs	ip, r4, #21
30005ac4:	1a000004 	bne	30005adc <__adddf3+0x2b8>
30005ac8:	e1b00080 	lsls	r0, r0, #1
30005acc:	e0b11001 	adcs	r1, r1, r1
30005ad0:	23811102 	orrcs	r1, r1, #-2147483648	; 0x80000000
30005ad4:	e8bd4030 	pop	{r4, r5, lr}
30005ad8:	e12fff1e 	bx	lr
30005adc:	e2944501 	adds	r4, r4, #4194304	; 0x400000
30005ae0:	32811601 	addcc	r1, r1, #1048576	; 0x100000
30005ae4:	38bd4030 	popcc	{r4, r5, lr}
30005ae8:	312fff1e 	bxcc	lr
30005aec:	e2015102 	and	r5, r1, #-2147483648	; 0x80000000
30005af0:	e385147f 	orr	r1, r5, #2130706432	; 0x7f000000
30005af4:	e381160f 	orr	r1, r1, #15728640	; 0xf00000
30005af8:	e3a00000 	mov	r0, #0
30005afc:	e8bd4030 	pop	{r4, r5, lr}
30005b00:	e12fff1e 	bx	lr
30005b04:	e1f0cac4 	mvns	ip, r4, asr #21
30005b08:	11a01003 	movne	r1, r3
30005b0c:	11a00002 	movne	r0, r2
30005b10:	01f0cac5 	mvnseq	ip, r5, asr #21
30005b14:	11a03001 	movne	r3, r1
30005b18:	11a02000 	movne	r2, r0
30005b1c:	e1904601 	orrs	r4, r0, r1, lsl #12
30005b20:	01925603 	orrseq	r5, r2, r3, lsl #12
30005b24:	01310003 	teqeq	r1, r3
30005b28:	13811702 	orrne	r1, r1, #524288	; 0x80000
30005b2c:	e8bd4030 	pop	{r4, r5, lr}
30005b30:	e12fff1e 	bx	lr

30005b34 <__aeabi_ui2d>:
30005b34:	e3300000 	teq	r0, #0
30005b38:	03a01000 	moveq	r1, #0
30005b3c:	012fff1e 	bxeq	lr
30005b40:	e92d4030 	push	{r4, r5, lr}
30005b44:	e3a04b01 	mov	r4, #1024	; 0x400
30005b48:	e2844032 	add	r4, r4, #50	; 0x32
30005b4c:	e3a05000 	mov	r5, #0
30005b50:	e3a01000 	mov	r1, #0
30005b54:	eaffff86 	b	30005974 <__adddf3+0x150>

30005b58 <__aeabi_i2d>:
30005b58:	e3300000 	teq	r0, #0
30005b5c:	03a01000 	moveq	r1, #0
30005b60:	012fff1e 	bxeq	lr
30005b64:	e92d4030 	push	{r4, r5, lr}
30005b68:	e3a04b01 	mov	r4, #1024	; 0x400
30005b6c:	e2844032 	add	r4, r4, #50	; 0x32
30005b70:	e2105102 	ands	r5, r0, #-2147483648	; 0x80000000
30005b74:	42600000 	rsbmi	r0, r0, #0
30005b78:	e3a01000 	mov	r1, #0
30005b7c:	eaffff7c 	b	30005974 <__adddf3+0x150>

30005b80 <__aeabi_f2d>:
30005b80:	e1b02080 	lsls	r2, r0, #1
30005b84:	e1a011c2 	asr	r1, r2, #3
30005b88:	e1a01061 	rrx	r1, r1
30005b8c:	e1a00e02 	lsl	r0, r2, #28
30005b90:	121234ff 	andsne	r3, r2, #-16777216	; 0xff000000
30005b94:	133304ff 	teqne	r3, #-16777216	; 0xff000000
30005b98:	1221130e 	eorne	r1, r1, #939524096	; 0x38000000
30005b9c:	112fff1e 	bxne	lr
30005ba0:	e3d224ff 	bics	r2, r2, #-16777216	; 0xff000000
30005ba4:	012fff1e 	bxeq	lr
30005ba8:	e33304ff 	teq	r3, #-16777216	; 0xff000000
30005bac:	03811702 	orreq	r1, r1, #524288	; 0x80000
30005bb0:	012fff1e 	bxeq	lr
30005bb4:	e92d4030 	push	{r4, r5, lr}
30005bb8:	e3a04d0e 	mov	r4, #896	; 0x380
30005bbc:	e2015102 	and	r5, r1, #-2147483648	; 0x80000000
30005bc0:	e3c11102 	bic	r1, r1, #-2147483648	; 0x80000000
30005bc4:	eaffff6a 	b	30005974 <__adddf3+0x150>

30005bc8 <__aeabi_ul2d>:
30005bc8:	e1902001 	orrs	r2, r0, r1
30005bcc:	012fff1e 	bxeq	lr
30005bd0:	e92d4030 	push	{r4, r5, lr}
30005bd4:	e3a05000 	mov	r5, #0
30005bd8:	ea000006 	b	30005bf8 <__aeabi_l2d+0x1c>

30005bdc <__aeabi_l2d>:
30005bdc:	e1902001 	orrs	r2, r0, r1
30005be0:	012fff1e 	bxeq	lr
30005be4:	e92d4030 	push	{r4, r5, lr}
30005be8:	e2115102 	ands	r5, r1, #-2147483648	; 0x80000000
30005bec:	5a000001 	bpl	30005bf8 <__aeabi_l2d+0x1c>
30005bf0:	e2700000 	rsbs	r0, r0, #0
30005bf4:	e2e11000 	rsc	r1, r1, #0
30005bf8:	e3a04b01 	mov	r4, #1024	; 0x400
30005bfc:	e2844032 	add	r4, r4, #50	; 0x32
30005c00:	e1b0cb21 	lsrs	ip, r1, #22
30005c04:	0affff42 	beq	30005914 <__adddf3+0xf0>
30005c08:	e3a02003 	mov	r2, #3
30005c0c:	e1b0c1ac 	lsrs	ip, ip, #3
30005c10:	12822003 	addne	r2, r2, #3
30005c14:	e1b0c1ac 	lsrs	ip, ip, #3
30005c18:	12822003 	addne	r2, r2, #3
30005c1c:	e08221ac 	add	r2, r2, ip, lsr #3
30005c20:	e2623020 	rsb	r3, r2, #32
30005c24:	e1a0c310 	lsl	ip, r0, r3
30005c28:	e1a00230 	lsr	r0, r0, r2
30005c2c:	e1800311 	orr	r0, r0, r1, lsl r3
30005c30:	e1a01231 	lsr	r1, r1, r2
30005c34:	e0844002 	add	r4, r4, r2
30005c38:	eaffff35 	b	30005914 <__adddf3+0xf0>

30005c3c <__aeabi_dmul>:
30005c3c:	e92d4070 	push	{r4, r5, r6, lr}
30005c40:	e3a0c0ff 	mov	ip, #255	; 0xff
30005c44:	e38ccc07 	orr	ip, ip, #1792	; 0x700
30005c48:	e01c4a21 	ands	r4, ip, r1, lsr #20
30005c4c:	101c5a23 	andsne	r5, ip, r3, lsr #20
30005c50:	1134000c 	teqne	r4, ip
30005c54:	1135000c 	teqne	r5, ip
30005c58:	0b000075 	bleq	30005e34 <__aeabi_dmul+0x1f8>
30005c5c:	e0844005 	add	r4, r4, r5
30005c60:	e0216003 	eor	r6, r1, r3
30005c64:	e1c11a8c 	bic	r1, r1, ip, lsl #21
30005c68:	e1c33a8c 	bic	r3, r3, ip, lsl #21
30005c6c:	e1905601 	orrs	r5, r0, r1, lsl #12
30005c70:	11925603 	orrsne	r5, r2, r3, lsl #12
30005c74:	e3811601 	orr	r1, r1, #1048576	; 0x100000
30005c78:	e3833601 	orr	r3, r3, #1048576	; 0x100000
30005c7c:	0a00001d 	beq	30005cf8 <__aeabi_dmul+0xbc>
30005c80:	e08ec290 	umull	ip, lr, r0, r2
30005c84:	e3a05000 	mov	r5, #0
30005c88:	e0a5e291 	umlal	lr, r5, r1, r2
30005c8c:	e2062102 	and	r2, r6, #-2147483648	; 0x80000000
30005c90:	e0a5e390 	umlal	lr, r5, r0, r3
30005c94:	e3a06000 	mov	r6, #0
30005c98:	e0a65391 	umlal	r5, r6, r1, r3
30005c9c:	e33c0000 	teq	ip, #0
30005ca0:	138ee001 	orrne	lr, lr, #1
30005ca4:	e24440ff 	sub	r4, r4, #255	; 0xff
30005ca8:	e3560c02 	cmp	r6, #512	; 0x200
30005cac:	e2c44c03 	sbc	r4, r4, #768	; 0x300
30005cb0:	2a000002 	bcs	30005cc0 <__aeabi_dmul+0x84>
30005cb4:	e1b0e08e 	lsls	lr, lr, #1
30005cb8:	e0b55005 	adcs	r5, r5, r5
30005cbc:	e0a66006 	adc	r6, r6, r6
30005cc0:	e1821586 	orr	r1, r2, r6, lsl #11
30005cc4:	e1811aa5 	orr	r1, r1, r5, lsr #21
30005cc8:	e1a00585 	lsl	r0, r5, #11
30005ccc:	e1800aae 	orr	r0, r0, lr, lsr #21
30005cd0:	e1a0e58e 	lsl	lr, lr, #11
30005cd4:	e254c0fd 	subs	ip, r4, #253	; 0xfd
30005cd8:	835c0c07 	cmphi	ip, #1792	; 0x700
30005cdc:	8a000011 	bhi	30005d28 <__aeabi_dmul+0xec>
30005ce0:	e35e0102 	cmp	lr, #-2147483648	; 0x80000000
30005ce4:	01b0e0a0 	lsrseq	lr, r0, #1
30005ce8:	e2b00000 	adcs	r0, r0, #0
30005cec:	e0a11a04 	adc	r1, r1, r4, lsl #20
30005cf0:	e8bd4070 	pop	{r4, r5, r6, lr}
30005cf4:	e12fff1e 	bx	lr
30005cf8:	e2066102 	and	r6, r6, #-2147483648	; 0x80000000
30005cfc:	e1861001 	orr	r1, r6, r1
30005d00:	e1800002 	orr	r0, r0, r2
30005d04:	e0211003 	eor	r1, r1, r3
30005d08:	e05440ac 	subs	r4, r4, ip, lsr #1
30005d0c:	c074500c 	rsbsgt	r5, r4, ip
30005d10:	c1811a04 	orrgt	r1, r1, r4, lsl #20
30005d14:	c8bd4070 	popgt	{r4, r5, r6, lr}
30005d18:	c12fff1e 	bxgt	lr
30005d1c:	e3811601 	orr	r1, r1, #1048576	; 0x100000
30005d20:	e3a0e000 	mov	lr, #0
30005d24:	e2544001 	subs	r4, r4, #1
30005d28:	ca00005d 	bgt	30005ea4 <__aeabi_dmul+0x268>
30005d2c:	e3740036 	cmn	r4, #54	; 0x36
30005d30:	d3a00000 	movle	r0, #0
30005d34:	d2011102 	andle	r1, r1, #-2147483648	; 0x80000000
30005d38:	d8bd4070 	pople	{r4, r5, r6, lr}
30005d3c:	d12fff1e 	bxle	lr
30005d40:	e2644000 	rsb	r4, r4, #0
30005d44:	e2544020 	subs	r4, r4, #32
30005d48:	aa00001a 	bge	30005db8 <__aeabi_dmul+0x17c>
30005d4c:	e294400c 	adds	r4, r4, #12
30005d50:	ca00000c 	bgt	30005d88 <__aeabi_dmul+0x14c>
30005d54:	e2844014 	add	r4, r4, #20
30005d58:	e2645020 	rsb	r5, r4, #32
30005d5c:	e1a03510 	lsl	r3, r0, r5
30005d60:	e1a00430 	lsr	r0, r0, r4
30005d64:	e1800511 	orr	r0, r0, r1, lsl r5
30005d68:	e2012102 	and	r2, r1, #-2147483648	; 0x80000000
30005d6c:	e3c11102 	bic	r1, r1, #-2147483648	; 0x80000000
30005d70:	e0900fa3 	adds	r0, r0, r3, lsr #31
30005d74:	e0a21431 	adc	r1, r2, r1, lsr r4
30005d78:	e19ee083 	orrs	lr, lr, r3, lsl #1
30005d7c:	01c00fa3 	biceq	r0, r0, r3, lsr #31
30005d80:	e8bd4070 	pop	{r4, r5, r6, lr}
30005d84:	e12fff1e 	bx	lr
30005d88:	e264400c 	rsb	r4, r4, #12
30005d8c:	e2645020 	rsb	r5, r4, #32
30005d90:	e1a03410 	lsl	r3, r0, r4
30005d94:	e1a00530 	lsr	r0, r0, r5
30005d98:	e1800411 	orr	r0, r0, r1, lsl r4
30005d9c:	e2011102 	and	r1, r1, #-2147483648	; 0x80000000
30005da0:	e0900fa3 	adds	r0, r0, r3, lsr #31
30005da4:	e2a11000 	adc	r1, r1, #0
30005da8:	e19ee083 	orrs	lr, lr, r3, lsl #1
30005dac:	01c00fa3 	biceq	r0, r0, r3, lsr #31
30005db0:	e8bd4070 	pop	{r4, r5, r6, lr}
30005db4:	e12fff1e 	bx	lr
30005db8:	e2645020 	rsb	r5, r4, #32
30005dbc:	e18ee510 	orr	lr, lr, r0, lsl r5
30005dc0:	e1a03430 	lsr	r3, r0, r4
30005dc4:	e1833511 	orr	r3, r3, r1, lsl r5
30005dc8:	e1a00431 	lsr	r0, r1, r4
30005dcc:	e2011102 	and	r1, r1, #-2147483648	; 0x80000000
30005dd0:	e1c00431 	bic	r0, r0, r1, lsr r4
30005dd4:	e0800fa3 	add	r0, r0, r3, lsr #31
30005dd8:	e19ee083 	orrs	lr, lr, r3, lsl #1
30005ddc:	01c00fa3 	biceq	r0, r0, r3, lsr #31
30005de0:	e8bd4070 	pop	{r4, r5, r6, lr}
30005de4:	e12fff1e 	bx	lr
30005de8:	e3340000 	teq	r4, #0
30005dec:	1a000008 	bne	30005e14 <__aeabi_dmul+0x1d8>
30005df0:	e2016102 	and	r6, r1, #-2147483648	; 0x80000000
30005df4:	e1b00080 	lsls	r0, r0, #1
30005df8:	e0a11001 	adc	r1, r1, r1
30005dfc:	e3110601 	tst	r1, #1048576	; 0x100000
30005e00:	02444001 	subeq	r4, r4, #1
30005e04:	0afffffa 	beq	30005df4 <__aeabi_dmul+0x1b8>
30005e08:	e1811006 	orr	r1, r1, r6
30005e0c:	e3350000 	teq	r5, #0
30005e10:	112fff1e 	bxne	lr
30005e14:	e2036102 	and	r6, r3, #-2147483648	; 0x80000000
30005e18:	e1b02082 	lsls	r2, r2, #1
30005e1c:	e0a33003 	adc	r3, r3, r3
30005e20:	e3130601 	tst	r3, #1048576	; 0x100000
30005e24:	02455001 	subeq	r5, r5, #1
30005e28:	0afffffa 	beq	30005e18 <__aeabi_dmul+0x1dc>
30005e2c:	e1833006 	orr	r3, r3, r6
30005e30:	e12fff1e 	bx	lr
30005e34:	e134000c 	teq	r4, ip
30005e38:	e00c5a23 	and	r5, ip, r3, lsr #20
30005e3c:	1135000c 	teqne	r5, ip
30005e40:	0a000007 	beq	30005e64 <__aeabi_dmul+0x228>
30005e44:	e1906081 	orrs	r6, r0, r1, lsl #1
30005e48:	11926083 	orrsne	r6, r2, r3, lsl #1
30005e4c:	1affffe5 	bne	30005de8 <__aeabi_dmul+0x1ac>
30005e50:	e0211003 	eor	r1, r1, r3
30005e54:	e2011102 	and	r1, r1, #-2147483648	; 0x80000000
30005e58:	e3a00000 	mov	r0, #0
30005e5c:	e8bd4070 	pop	{r4, r5, r6, lr}
30005e60:	e12fff1e 	bx	lr
30005e64:	e1906081 	orrs	r6, r0, r1, lsl #1
30005e68:	01a00002 	moveq	r0, r2
30005e6c:	01a01003 	moveq	r1, r3
30005e70:	11926083 	orrsne	r6, r2, r3, lsl #1
30005e74:	0a000010 	beq	30005ebc <__aeabi_dmul+0x280>
30005e78:	e134000c 	teq	r4, ip
30005e7c:	1a000001 	bne	30005e88 <__aeabi_dmul+0x24c>
30005e80:	e1906601 	orrs	r6, r0, r1, lsl #12
30005e84:	1a00000c 	bne	30005ebc <__aeabi_dmul+0x280>
30005e88:	e135000c 	teq	r5, ip
30005e8c:	1a000003 	bne	30005ea0 <__aeabi_dmul+0x264>
30005e90:	e1926603 	orrs	r6, r2, r3, lsl #12
30005e94:	11a00002 	movne	r0, r2
30005e98:	11a01003 	movne	r1, r3
30005e9c:	1a000006 	bne	30005ebc <__aeabi_dmul+0x280>
30005ea0:	e0211003 	eor	r1, r1, r3
30005ea4:	e2011102 	and	r1, r1, #-2147483648	; 0x80000000
30005ea8:	e381147f 	orr	r1, r1, #2130706432	; 0x7f000000
30005eac:	e381160f 	orr	r1, r1, #15728640	; 0xf00000
30005eb0:	e3a00000 	mov	r0, #0
30005eb4:	e8bd4070 	pop	{r4, r5, r6, lr}
30005eb8:	e12fff1e 	bx	lr
30005ebc:	e381147f 	orr	r1, r1, #2130706432	; 0x7f000000
30005ec0:	e381173e 	orr	r1, r1, #16252928	; 0xf80000
30005ec4:	e8bd4070 	pop	{r4, r5, r6, lr}
30005ec8:	e12fff1e 	bx	lr

30005ecc <__aeabi_ddiv>:
30005ecc:	e92d4070 	push	{r4, r5, r6, lr}
30005ed0:	e3a0c0ff 	mov	ip, #255	; 0xff
30005ed4:	e38ccc07 	orr	ip, ip, #1792	; 0x700
30005ed8:	e01c4a21 	ands	r4, ip, r1, lsr #20
30005edc:	101c5a23 	andsne	r5, ip, r3, lsr #20
30005ee0:	1134000c 	teqne	r4, ip
30005ee4:	1135000c 	teqne	r5, ip
30005ee8:	0b00005e 	bleq	30006068 <__aeabi_ddiv+0x19c>
30005eec:	e0444005 	sub	r4, r4, r5
30005ef0:	e021e003 	eor	lr, r1, r3
30005ef4:	e1925603 	orrs	r5, r2, r3, lsl #12
30005ef8:	e1a01601 	lsl	r1, r1, #12
30005efc:	0a00004c 	beq	30006034 <__aeabi_ddiv+0x168>
30005f00:	e1a03603 	lsl	r3, r3, #12
30005f04:	e3a05201 	mov	r5, #268435456	; 0x10000000
30005f08:	e1853223 	orr	r3, r5, r3, lsr #4
30005f0c:	e1833c22 	orr	r3, r3, r2, lsr #24
30005f10:	e1a02402 	lsl	r2, r2, #8
30005f14:	e1855221 	orr	r5, r5, r1, lsr #4
30005f18:	e1855c20 	orr	r5, r5, r0, lsr #24
30005f1c:	e1a06400 	lsl	r6, r0, #8
30005f20:	e20e1102 	and	r1, lr, #-2147483648	; 0x80000000
30005f24:	e1550003 	cmp	r5, r3
30005f28:	01560002 	cmpeq	r6, r2
30005f2c:	e2a440fd 	adc	r4, r4, #253	; 0xfd
30005f30:	e2844c03 	add	r4, r4, #768	; 0x300
30005f34:	2a000001 	bcs	30005f40 <__aeabi_ddiv+0x74>
30005f38:	e1b030a3 	lsrs	r3, r3, #1
30005f3c:	e1a02062 	rrx	r2, r2
30005f40:	e0566002 	subs	r6, r6, r2
30005f44:	e0c55003 	sbc	r5, r5, r3
30005f48:	e1b030a3 	lsrs	r3, r3, #1
30005f4c:	e1a02062 	rrx	r2, r2
30005f50:	e3a00601 	mov	r0, #1048576	; 0x100000
30005f54:	e3a0c702 	mov	ip, #524288	; 0x80000
30005f58:	e056e002 	subs	lr, r6, r2
30005f5c:	e0d5e003 	sbcs	lr, r5, r3
30005f60:	20466002 	subcs	r6, r6, r2
30005f64:	21a0500e 	movcs	r5, lr
30005f68:	2180000c 	orrcs	r0, r0, ip
30005f6c:	e1b030a3 	lsrs	r3, r3, #1
30005f70:	e1a02062 	rrx	r2, r2
30005f74:	e056e002 	subs	lr, r6, r2
30005f78:	e0d5e003 	sbcs	lr, r5, r3
30005f7c:	20466002 	subcs	r6, r6, r2
30005f80:	21a0500e 	movcs	r5, lr
30005f84:	218000ac 	orrcs	r0, r0, ip, lsr #1
30005f88:	e1b030a3 	lsrs	r3, r3, #1
30005f8c:	e1a02062 	rrx	r2, r2
30005f90:	e056e002 	subs	lr, r6, r2
30005f94:	e0d5e003 	sbcs	lr, r5, r3
30005f98:	20466002 	subcs	r6, r6, r2
30005f9c:	21a0500e 	movcs	r5, lr
30005fa0:	2180012c 	orrcs	r0, r0, ip, lsr #2
30005fa4:	e1b030a3 	lsrs	r3, r3, #1
30005fa8:	e1a02062 	rrx	r2, r2
30005fac:	e056e002 	subs	lr, r6, r2
30005fb0:	e0d5e003 	sbcs	lr, r5, r3
30005fb4:	20466002 	subcs	r6, r6, r2
30005fb8:	21a0500e 	movcs	r5, lr
30005fbc:	218001ac 	orrcs	r0, r0, ip, lsr #3
30005fc0:	e195e006 	orrs	lr, r5, r6
30005fc4:	0a00000d 	beq	30006000 <__aeabi_ddiv+0x134>
30005fc8:	e1a05205 	lsl	r5, r5, #4
30005fcc:	e1855e26 	orr	r5, r5, r6, lsr #28
30005fd0:	e1a06206 	lsl	r6, r6, #4
30005fd4:	e1a03183 	lsl	r3, r3, #3
30005fd8:	e1833ea2 	orr	r3, r3, r2, lsr #29
30005fdc:	e1a02182 	lsl	r2, r2, #3
30005fe0:	e1b0c22c 	lsrs	ip, ip, #4
30005fe4:	1affffdb 	bne	30005f58 <__aeabi_ddiv+0x8c>
30005fe8:	e3110601 	tst	r1, #1048576	; 0x100000
30005fec:	1a000006 	bne	3000600c <__aeabi_ddiv+0x140>
30005ff0:	e1811000 	orr	r1, r1, r0
30005ff4:	e3a00000 	mov	r0, #0
30005ff8:	e3a0c102 	mov	ip, #-2147483648	; 0x80000000
30005ffc:	eaffffd5 	b	30005f58 <__aeabi_ddiv+0x8c>
30006000:	e3110601 	tst	r1, #1048576	; 0x100000
30006004:	01811000 	orreq	r1, r1, r0
30006008:	03a00000 	moveq	r0, #0
3000600c:	e254c0fd 	subs	ip, r4, #253	; 0xfd
30006010:	835c0c07 	cmphi	ip, #1792	; 0x700
30006014:	8affff43 	bhi	30005d28 <__aeabi_dmul+0xec>
30006018:	e055c003 	subs	ip, r5, r3
3000601c:	0056c002 	subseq	ip, r6, r2
30006020:	01b0c0a0 	lsrseq	ip, r0, #1
30006024:	e2b00000 	adcs	r0, r0, #0
30006028:	e0a11a04 	adc	r1, r1, r4, lsl #20
3000602c:	e8bd4070 	pop	{r4, r5, r6, lr}
30006030:	e12fff1e 	bx	lr
30006034:	e20ee102 	and	lr, lr, #-2147483648	; 0x80000000
30006038:	e18e1621 	orr	r1, lr, r1, lsr #12
3000603c:	e09440ac 	adds	r4, r4, ip, lsr #1
30006040:	c074500c 	rsbsgt	r5, r4, ip
30006044:	c1811a04 	orrgt	r1, r1, r4, lsl #20
30006048:	c8bd4070 	popgt	{r4, r5, r6, lr}
3000604c:	c12fff1e 	bxgt	lr
30006050:	e3811601 	orr	r1, r1, #1048576	; 0x100000
30006054:	e3a0e000 	mov	lr, #0
30006058:	e2544001 	subs	r4, r4, #1
3000605c:	eaffff31 	b	30005d28 <__aeabi_dmul+0xec>
30006060:	e185e006 	orr	lr, r5, r6
30006064:	eaffff2f 	b	30005d28 <__aeabi_dmul+0xec>
30006068:	e00c5a23 	and	r5, ip, r3, lsr #20
3000606c:	e134000c 	teq	r4, ip
30006070:	0135000c 	teqeq	r5, ip
30006074:	0affff90 	beq	30005ebc <__aeabi_dmul+0x280>
30006078:	e134000c 	teq	r4, ip
3000607c:	1a000006 	bne	3000609c <__aeabi_ddiv+0x1d0>
30006080:	e1904601 	orrs	r4, r0, r1, lsl #12
30006084:	1affff8c 	bne	30005ebc <__aeabi_dmul+0x280>
30006088:	e135000c 	teq	r5, ip
3000608c:	1affff83 	bne	30005ea0 <__aeabi_dmul+0x264>
30006090:	e1a00002 	mov	r0, r2
30006094:	e1a01003 	mov	r1, r3
30006098:	eaffff87 	b	30005ebc <__aeabi_dmul+0x280>
3000609c:	e135000c 	teq	r5, ip
300060a0:	1a000004 	bne	300060b8 <__aeabi_ddiv+0x1ec>
300060a4:	e1925603 	orrs	r5, r2, r3, lsl #12
300060a8:	0affff68 	beq	30005e50 <__aeabi_dmul+0x214>
300060ac:	e1a00002 	mov	r0, r2
300060b0:	e1a01003 	mov	r1, r3
300060b4:	eaffff80 	b	30005ebc <__aeabi_dmul+0x280>
300060b8:	e1906081 	orrs	r6, r0, r1, lsl #1
300060bc:	11926083 	orrsne	r6, r2, r3, lsl #1
300060c0:	1affff48 	bne	30005de8 <__aeabi_dmul+0x1ac>
300060c4:	e1904081 	orrs	r4, r0, r1, lsl #1
300060c8:	1affff74 	bne	30005ea0 <__aeabi_dmul+0x264>
300060cc:	e1925083 	orrs	r5, r2, r3, lsl #1
300060d0:	1affff5e 	bne	30005e50 <__aeabi_dmul+0x214>
300060d4:	eaffff78 	b	30005ebc <__aeabi_dmul+0x280>

300060d8 <__aeabi_d2iz>:
300060d8:	e1a02081 	lsl	r2, r1, #1
300060dc:	e2922602 	adds	r2, r2, #2097152	; 0x200000
300060e0:	2a00000c 	bcs	30006118 <__aeabi_d2iz+0x40>
300060e4:	5a000009 	bpl	30006110 <__aeabi_d2iz+0x38>
300060e8:	e3e03e3e 	mvn	r3, #992	; 0x3e0
300060ec:	e0532ac2 	subs	r2, r3, r2, asr #21
300060f0:	9a00000a 	bls	30006120 <__aeabi_d2iz+0x48>
300060f4:	e1a03581 	lsl	r3, r1, #11
300060f8:	e3833102 	orr	r3, r3, #-2147483648	; 0x80000000
300060fc:	e1833aa0 	orr	r3, r3, r0, lsr #21
30006100:	e3110102 	tst	r1, #-2147483648	; 0x80000000
30006104:	e1a00233 	lsr	r0, r3, r2
30006108:	12600000 	rsbne	r0, r0, #0
3000610c:	e12fff1e 	bx	lr
30006110:	e3a00000 	mov	r0, #0
30006114:	e12fff1e 	bx	lr
30006118:	e1900601 	orrs	r0, r0, r1, lsl #12
3000611c:	1a000002 	bne	3000612c <__aeabi_d2iz+0x54>
30006120:	e2110102 	ands	r0, r1, #-2147483648	; 0x80000000
30006124:	03e00102 	mvneq	r0, #-2147483648	; 0x80000000
30006128:	e12fff1e 	bx	lr
3000612c:	e3a00000 	mov	r0, #0
30006130:	e12fff1e 	bx	lr

Disassembly of section .rodata:

30006134 <fontdata_8x16-0x264>:
30006134:	61726473 	cmnvs	r2, r3, ror r4
30006138:	7265206d 	rsbvc	r2, r5, #109	; 0x6d
3000613c:	0d726f72 	ldcleq	15, cr6, [r2, #-456]!	; 0xfffffe38
30006140:	0000000a 	andeq	r0, r0, sl
30006144:	61726473 	cmnvs	r2, r3, ror r4
30006148:	7573206d 	ldrbvc	r2, [r3, #-109]!	; 0xffffff93
3000614c:	73656363 	cmnvc	r5, #-1946157055	; 0x8c000001
30006150:	000a0d73 	andeq	r0, sl, r3, ror sp
30006154:	00202020 	eoreq	r2, r0, r0, lsr #32
30006158:	00000a0d 	andeq	r0, r0, sp, lsl #20
3000615c:	656b614d 	strbvs	r6, [fp, #-333]!	; 0xfffffeb3
30006160:	6f632072 	svcvs	0x00632072
30006164:	3d206564 	cfstr32cc	mvfx6, [r0, #-400]!	; 0xfffffe70
30006168:	00000020 	andeq	r0, r0, r0, lsr #32
3000616c:	69766564 	ldmdbvs	r6!, {r2, r5, r6, r8, sl, sp, lr}^
30006170:	695f6563 	ldmdbvs	pc, {r0, r1, r5, r6, r8, sl, sp, lr}^	; <UNPREDICTABLE>
30006174:	203d2064 	eorscs	r2, sp, r4, rrx
30006178:	00000000 	andeq	r0, r0, r0
3000617c:	65746e49 	ldrbvs	r6, [r4, #-3657]!	; 0xfffff1b7
30006180:	6c616e72 	stclvs	14, cr6, [r1], #-456	; 0xfffffe38
30006184:	69684320 	stmdbvs	r8!, {r5, r8, r9, lr}^
30006188:	754e2070 	strbvc	r2, [lr, #-112]	; 0xffffff90
3000618c:	7265626d 	rsbvc	r6, r5, #-805306362	; 0xd0000006
30006190:	00203d20 	eoreq	r3, r0, r0, lsr #26
30006194:	00626b20 	rsbeq	r6, r2, r0, lsr #22
30006198:	65676150 	strbvs	r6, [r7, #-336]!	; 0xfffffeb0
3000619c:	7a697320 	bvc	31a62e24 <__bss_end+0x1a5b5bc>
300061a0:	203d2065 	eorscs	r2, sp, r5, rrx
300061a4:	00000000 	andeq	r0, r0, r0
300061a8:	636f6c42 	cmnvs	pc, #16896	; 0x4200
300061ac:	6973206b 	ldmdbvs	r3!, {r0, r1, r3, r5, r6, sp}^
300061b0:	3d20657a 	cfstr32cc	mvfx6, [r0, #-488]!	; 0xfffffe18
300061b4:	00000020 	andeq	r0, r0, r0, lsr #32
300061b8:	6e616c50 	mcrvs	12, 3, r6, cr1, cr0, {2}
300061bc:	756e2065 	strbvc	r2, [lr, #-101]!	; 0xffffff9b
300061c0:	7265626d 	rsbvc	r6, r5, #-805306362	; 0xd0000006
300061c4:	00203d20 	eoreq	r3, r0, r0, lsr #26
300061c8:	00626d20 	rsbeq	r6, r2, r0, lsr #26
300061cc:	6e616c50 	mcrvs	12, 3, r6, cr1, cr0, {2}
300061d0:	69732065 	ldmdbvs	r3!, {r0, r2, r5, r6, sp}^
300061d4:	3d20657a 	cfstr32cc	mvfx6, [r0, #-488]!	; 0xfffffe18
300061d8:	00000020 	andeq	r0, r0, r0, lsr #32
300061dc:	20747550 	rsbscs	r7, r4, r0, asr r5
300061e0:	72646461 	rsbvc	r6, r4, #1627389952	; 0x61000000
300061e4:	20737365 	rsbscs	r7, r3, r5, ror #6
300061e8:	6f727265 	svcvs	0x00727265
300061ec:	000a0d72 	andeq	r0, sl, r2, ror sp
300061f0:	73617245 	cmnvc	r1, #1342177284	; 0x50000004
300061f4:	6c622065 	stclvs	0, cr2, [r2], #-404	; 0xfffffe6c
300061f8:	206b636f 	rsbcs	r6, fp, pc, ror #6
300061fc:	63637573 	cmnvs	r3, #482344960	; 0x1cc00000
30006200:	21737365 	cmncs	r3, r5, ror #6
30006204:	00000a0d 	andeq	r0, r0, sp, lsl #20
30006208:	73617245 	cmnvc	r1, #1342177284	; 0x50000004
3000620c:	6c622065 	stclvs	0, cr2, [r2], #-404	; 0xfffffe6c
30006210:	206b636f 	rsbcs	r6, fp, pc, ror #6
30006214:	6f727265 	svcvs	0x00727265
30006218:	0a0d2172 	beq	3034e7e8 <__bss_end+0x346f80>
3000621c:	00000000 	andeq	r0, r0, r0
30006220:	74697257 	strbtvc	r7, [r9], #-599	; 0xfffffda9
30006224:	75732065 	ldrbvc	r2, [r3, #-101]!	; 0xffffff9b
30006228:	73656363 	cmnvc	r5, #-1946157055	; 0x8c000001
3000622c:	0a0d2173 	beq	3034e800 <__bss_end+0x346f98>
30006230:	00000000 	andeq	r0, r0, r0
30006234:	74697257 	strbtvc	r7, [r9], #-599	; 0xfffffda9
30006238:	72652065 	rsbvc	r2, r5, #101	; 0x65
3000623c:	21726f72 	cmncs	r2, r2, ror pc
30006240:	00000a0d 	andeq	r0, r0, sp, lsl #20
30006244:	20747570 	rsbscs	r7, r4, r0, ror r5
30006248:	64616572 	strbtvs	r6, [r1], #-1394	; 0xfffffa8e
3000624c:	64646120 	strbtvs	r6, [r4], #-288	; 0xfffffee0
30006250:	73736572 	cmnvc	r3, #478150656	; 0x1c800000
30006254:	0000203a 	andeq	r2, r0, sl, lsr r0
30006258:	6d617845 	stclvs	8, cr7, [r1, #-276]!	; 0xfffffeec
3000625c:	20656c70 	rsbcs	r6, r5, r0, ror ip
30006260:	444e414e 	strbmi	r4, [lr], #-334	; 0xfffffeb2
30006264:	616c4620 	cmnvs	ip, r0, lsr #12
30006268:	00006873 	andeq	r6, r0, r3, ror r8
3000626c:	205d735b 	subscs	r7, sp, fp, asr r3
30006270:	656c6553 	strbvs	r6, [ip, #-1363]!	; 0xfffffaad
30006274:	4e207463 	cdpmi	4, 2, cr7, cr0, cr3, {3}
30006278:	20444e41 	subcs	r4, r4, r1, asr #28
3000627c:	73616c66 	cmnvc	r1, #26112	; 0x6600
30006280:	6e692068 	cdpvs	0, 6, cr2, cr9, cr8, {3}
30006284:	0a0d6f66 	beq	30362024 <__bss_end+0x35a7bc>
30006288:	00000000 	andeq	r0, r0, r0
3000628c:	205d725b 	subscs	r7, sp, fp, asr r2
30006290:	64616552 	strbtvs	r6, [r1], #-1362	; 0xfffffaae
30006294:	4e414e20 	cdpmi	14, 4, cr4, cr1, cr0, {1}
30006298:	6c662044 	stclvs	0, cr2, [r6], #-272	; 0xfffffef0
3000629c:	20687361 	rsbcs	r7, r8, r1, ror #6
300062a0:	00000a0d 	andeq	r0, r0, sp, lsl #20
300062a4:	205d655b 	subscs	r6, sp, fp, asr r5
300062a8:	73617245 	cmnvc	r1, #1342177284	; 0x50000004
300062ac:	6c622065 	stclvs	0, cr2, [r2], #-404	; 0xfffffe6c
300062b0:	206b636f 	rsbcs	r6, fp, pc, ror #6
300062b4:	444e414e 	strbmi	r4, [lr], #-334	; 0xfffffeb2
300062b8:	616c6620 	cmnvs	ip, r0, lsr #12
300062bc:	0d206873 	stceq	8, cr6, [r0, #-460]!	; 0xfffffe34
300062c0:	0000000a 	andeq	r0, r0, sl
300062c4:	205d705b 	subscs	r7, sp, fp, asr r0
300062c8:	65676150 	strbvs	r6, [r7, #-336]!	; 0xfffffeb0
300062cc:	6f727020 	svcvs	0x00727020
300062d0:	6d617267 	sfmvs	f7, 2, [r1, #-412]!	; 0xfffffe64
300062d4:	4e414e20 	cdpmi	14, 4, cr4, cr1, cr0, {1}
300062d8:	6c662044 	stclvs	0, cr2, [r6], #-272	; 0xfffffef0
300062dc:	20687361 	rsbcs	r7, r8, r1, ror #6
300062e0:	00000a0d 	andeq	r0, r0, sp, lsl #20
300062e4:	205d715b 	subscs	r7, sp, fp, asr r1
300062e8:	74697551 	strbtvc	r7, [r9], #-1361	; 0xfffffaaf
300062ec:	000a0d20 	andeq	r0, sl, r0, lsr #26
300062f0:	74726175 	ldrbtvc	r6, [r2], #-373	; 0xfffffe8b
300062f4:	00000000 	andeq	r0, r0, r0
300062f8:	00007830 	andeq	r7, r0, r0, lsr r8
300062fc:	00000000 	andeq	r0, r0, r0
30006300:	00000a0d 	andeq	r0, r0, sp, lsl #20
30006304:	656d6954 	strbvs	r6, [sp, #-2388]!	; 0xfffff6ac
30006308:	61632072 	smcvs	12802	; 0x3202
3000630c:	626c6c6c 	rsbvs	r6, ip, #108, 24	; 0x6c00
30006310:	206b6361 	rsbcs	r6, fp, r1, ror #6
30006314:	0d732031 	ldcleq	0, cr2, [r3, #-196]!	; 0xffffff3c
30006318:	0000000a 	andeq	r0, r0, sl
3000631c:	6f666562 	svcvs	0x00666562
30006320:	0a0d6572 	beq	3035f8f0 <__bss_end+0x358088>
30006324:	00000000 	andeq	r0, r0, r0
30006328:	65746661 	ldrbvs	r6, [r4, #-1633]!	; 0xfffff99f
3000632c:	000a0d72 	andeq	r0, sl, r2, ror sp
30006330:	72737063 	rsbsvc	r7, r3, #99	; 0x63
30006334:	00203d20 	eoreq	r3, r0, r0, lsr #26
30006338:	3079656b 	rsbscc	r6, r9, fp, ror #10
3000633c:	6c657220 	sfmvs	f7, 2, [r5], #-128	; 0xffffff80
30006340:	65736165 	ldrbvs	r6, [r3, #-357]!	; 0xfffffe9b
30006344:	00000a0d 	andeq	r0, r0, sp, lsl #20
30006348:	3079656b 	rsbscc	r6, r9, fp, ror #10
3000634c:	746e6520 	strbtvc	r6, [lr], #-1312	; 0xfffffae0
30006350:	0a0d7265 	beq	30362cec <__bss_end+0x35b484>
30006354:	00000000 	andeq	r0, r0, r0
30006358:	3279656b 	rsbscc	r6, r9, #448790528	; 0x1ac00000
3000635c:	6c657220 	sfmvs	f7, 2, [r5], #-128	; 0xffffff80
30006360:	65736165 	ldrbvs	r6, [r3, #-357]!	; 0xfffffe9b
30006364:	00000a0d 	andeq	r0, r0, sp, lsl #20
30006368:	3279656b 	rsbscc	r6, r9, #448790528	; 0x1ac00000
3000636c:	746e6520 	strbtvc	r6, [lr], #-1312	; 0xfffffae0
30006370:	0a0d7265 	beq	30362d0c <__bss_end+0x35b4a4>
30006374:	00000000 	andeq	r0, r0, r0
30006378:	3179656b 	cmncc	r9, fp, ror #10
3000637c:	65722031 	ldrbvs	r2, [r2, #-49]!	; 0xffffffcf
30006380:	7361656c 	cmnvc	r1, #108, 10	; 0x1b000000
30006384:	000a0d65 	andeq	r0, sl, r5, ror #26
30006388:	3179656b 	cmncc	r9, fp, ror #10
3000638c:	6e652031 	mcrvs	0, 3, r2, cr5, cr1, {1}
30006390:	0d726574 	cfldr64eq	mvdx6, [r2, #-464]!	; 0xfffffe30
30006394:	0000000a 	andeq	r0, r0, sl

30006398 <fontdata_8x16>:
	...
300063a8:	817e0000 	cmnhi	lr, r0
300063ac:	bd8181a5 	stfltd	f0, [r1, #660]	; 0x294
300063b0:	7e818199 	mcrvc	1, 4, r8, cr1, cr9, {4}
300063b4:	00000000 	andeq	r0, r0, r0
300063b8:	ff7e0000 			; <UNDEFINED> instruction: 0xff7e0000
300063bc:	c3ffffdb 	mvnsgt	pc, #876	; 0x36c
300063c0:	7effffe7 	cdpvc	15, 15, cr15, cr15, cr7, {7}
	...
300063cc:	fefefe6c 	cdp2	14, 15, cr15, cr14, cr12, {3}
300063d0:	10387cfe 	ldrshtne	r7, [r8], -lr
	...
300063dc:	fe7c3810 	vfmab.bf16	<illegal reg q9.5>, q6, d0[0]
300063e0:	0010387c 	andseq	r3, r0, ip, ror r8
300063e4:	00000000 	andeq	r0, r0, r0
300063e8:	18000000 	stmdane	r0, {}	; <UNPREDICTABLE>
300063ec:	e7e73c3c 			; <UNDEFINED> instruction: 0xe7e73c3c
300063f0:	3c1818e7 	ldccc	8, cr1, [r8], {231}	; 0xe7
300063f4:	00000000 	andeq	r0, r0, r0
300063f8:	18000000 	stmdane	r0, {}	; <UNPREDICTABLE>
300063fc:	ffff7e3c 			; <UNDEFINED> instruction: 0xffff7e3c
30006400:	3c18187e 	ldccc	8, cr1, [r8], {126}	; 0x7e
	...
3000640c:	3c180000 	ldccc	0, cr0, [r8], {-0}
30006410:	0000183c 	andeq	r1, r0, ip, lsr r8
30006414:	00000000 	andeq	r0, r0, r0
30006418:	ffffffff 			; <UNDEFINED> instruction: 0xffffffff
3000641c:	c3e7ffff 	mvngt	pc, #1020	; 0x3fc
30006420:	ffffe7c3 			; <UNDEFINED> instruction: 0xffffe7c3
30006424:	ffffffff 			; <UNDEFINED> instruction: 0xffffffff
30006428:	00000000 	andeq	r0, r0, r0
3000642c:	42663c00 	rsbmi	r3, r6, #0, 24
30006430:	003c6642 	eorseq	r6, ip, r2, asr #12
30006434:	00000000 	andeq	r0, r0, r0
30006438:	ffffffff 			; <UNDEFINED> instruction: 0xffffffff
3000643c:	bd99c3ff 	ldclt	3, cr12, [r9, #1020]	; 0x3fc
30006440:	ffc399bd 			; <UNDEFINED> instruction: 0xffc399bd
30006444:	ffffffff 			; <UNDEFINED> instruction: 0xffffffff
30006448:	0e1e0000 	cdpeq	0, 1, cr0, cr14, cr0, {0}
3000644c:	cc78321a 	lfmgt	f3, 2, [r8], #-104	; 0xffffff98
30006450:	78cccccc 	stmiavc	ip, {r2, r3, r6, r7, sl, fp, lr, pc}^
30006454:	00000000 	andeq	r0, r0, r0
30006458:	663c0000 	ldrtvs	r0, [ip], -r0
3000645c:	3c666666 	stclcc	6, cr6, [r6], #-408	; 0xfffffe68
30006460:	18187e18 	ldmdane	r8, {r3, r4, r9, sl, fp, ip, sp, lr}
30006464:	00000000 	andeq	r0, r0, r0
30006468:	333f0000 	teqcc	pc, #0
3000646c:	3030303f 	eorscc	r3, r0, pc, lsr r0
30006470:	e0f07030 	rscs	r7, r0, r0, lsr r0
30006474:	00000000 	andeq	r0, r0, r0
30006478:	637f0000 	cmnvs	pc, #0
3000647c:	6363637f 	cmnvs	r3, #-67108863	; 0xfc000001
30006480:	e6e76763 	strbt	r6, [r7], r3, ror #14
30006484:	000000c0 	andeq	r0, r0, r0, asr #1
30006488:	18000000 	stmdane	r0, {}	; <UNPREDICTABLE>
3000648c:	e73cdb18 			; <UNDEFINED> instruction: 0xe73cdb18
30006490:	1818db3c 	ldmdane	r8, {r2, r3, r4, r5, r8, r9, fp, ip, lr, pc}
30006494:	00000000 	andeq	r0, r0, r0
30006498:	e0c08000 	sbc	r8, r0, r0
3000649c:	f8fef8f0 			; <UNDEFINED> instruction: 0xf8fef8f0
300064a0:	80c0e0f0 	strdhi	lr, [r0], #0
300064a4:	00000000 	andeq	r0, r0, r0
300064a8:	0e060200 	cdpeq	2, 0, cr0, cr6, cr0, {0}
300064ac:	3efe3e1e 	mrccc	14, 7, r3, cr14, cr14, {0}
300064b0:	02060e1e 	andeq	r0, r6, #480	; 0x1e0
300064b4:	00000000 	andeq	r0, r0, r0
300064b8:	3c180000 	ldccc	0, cr0, [r8], {-0}
300064bc:	1818187e 	ldmdane	r8, {r1, r2, r3, r4, r5, r6, fp, ip}
300064c0:	00183c7e 	andseq	r3, r8, lr, ror ip
300064c4:	00000000 	andeq	r0, r0, r0
300064c8:	66660000 	strbtvs	r0, [r6], -r0
300064cc:	66666666 	strbtvs	r6, [r6], -r6, ror #12
300064d0:	66660066 	strbtvs	r0, [r6], -r6, rrx
300064d4:	00000000 	andeq	r0, r0, r0
300064d8:	db7f0000 	blle	31fc64e0 <__bss_end+0x1fbec78>
300064dc:	1b7bdbdb 	blne	31efd450 <__bss_end+0x1ef5be8>
300064e0:	1b1b1b1b 	blne	306cd154 <__bss_end+0x6c58ec>
300064e4:	00000000 	andeq	r0, r0, r0
300064e8:	60c67c00 	sbcvs	r7, r6, r0, lsl #24
300064ec:	c6c66c38 			; <UNDEFINED> instruction: 0xc6c66c38
300064f0:	c60c386c 	strgt	r3, [ip], -ip, ror #16
300064f4:	0000007c 	andeq	r0, r0, ip, ror r0
	...
30006500:	fefefefe 	mrc2	14, 7, pc, cr14, cr14, {7}
30006504:	00000000 	andeq	r0, r0, r0
30006508:	3c180000 	ldccc	0, cr0, [r8], {-0}
3000650c:	1818187e 	ldmdane	r8, {r1, r2, r3, r4, r5, r6, fp, ip}
30006510:	7e183c7e 	mrcvc	12, 0, r3, cr8, cr14, {3}
30006514:	00000000 	andeq	r0, r0, r0
30006518:	3c180000 	ldccc	0, cr0, [r8], {-0}
3000651c:	1818187e 	ldmdane	r8, {r1, r2, r3, r4, r5, r6, fp, ip}
30006520:	18181818 	ldmdane	r8, {r3, r4, fp, ip}
30006524:	00000000 	andeq	r0, r0, r0
30006528:	18180000 	ldmdane	r8, {}	; <UNPREDICTABLE>
3000652c:	18181818 	ldmdane	r8, {r3, r4, fp, ip}
30006530:	183c7e18 	ldmdane	ip!, {r3, r4, r9, sl, fp, ip, sp, lr}
	...
3000653c:	fe0c1800 	vcmla.f16	d1, d12, d0[0], #0
30006540:	0000180c 	andeq	r1, r0, ip, lsl #16
	...
3000654c:	fe603000 	cdp2	0, 6, cr3, cr0, cr0, {0}
30006550:	00003060 	andeq	r3, r0, r0, rrx
	...
3000655c:	c0c00000 	sbcgt	r0, r0, r0
30006560:	0000fec0 	andeq	pc, r0, r0, asr #29
	...
3000656c:	fe6c2800 	vcmla.f16	d18, d12, d0[0], #180
30006570:	0000286c 	andeq	r2, r0, ip, ror #16
	...
3000657c:	7c383810 	ldcvc	8, cr3, [r8], #-64	; 0xffffffc0
30006580:	00fefe7c 	rscseq	pc, lr, ip, ror lr	; <UNPREDICTABLE>
	...
3000658c:	7c7cfefe 	ldclvc	14, cr15, [ip], #-1016	; 0xfffffc08
30006590:	00103838 	andseq	r3, r0, r8, lsr r8
	...
300065a8:	3c180000 	ldccc	0, cr0, [r8], {-0}
300065ac:	18183c3c 	ldmdane	r8, {r2, r3, r4, r5, sl, fp, ip, sp}
300065b0:	18180018 	ldmdane	r8, {r3, r4}
300065b4:	00000000 	andeq	r0, r0, r0
300065b8:	66666600 	strbtvs	r6, [r6], -r0, lsl #12
300065bc:	00000024 	andeq	r0, r0, r4, lsr #32
	...
300065c8:	6c000000 	stcvs	0, cr0, [r0], {-0}
300065cc:	6c6cfe6c 	stclvs	14, cr15, [ip], #-432	; 0xfffffe50
300065d0:	6c6cfe6c 	stclvs	14, cr15, [ip], #-432	; 0xfffffe50
300065d4:	00000000 	andeq	r0, r0, r0
300065d8:	c67c1818 			; <UNDEFINED> instruction: 0xc67c1818
300065dc:	067cc0c2 	ldrbteq	ip, [ip], -r2, asr #1
300065e0:	7cc68606 	stclvc	6, cr8, [r6], {6}
300065e4:	00001818 	andeq	r1, r0, r8, lsl r8
300065e8:	00000000 	andeq	r0, r0, r0
300065ec:	180cc6c2 	stmdane	ip, {r1, r6, r7, r9, sl, lr, pc}
300065f0:	86c66030 			; <UNDEFINED> instruction: 0x86c66030
300065f4:	00000000 	andeq	r0, r0, r0
300065f8:	6c380000 	ldcvs	0, cr0, [r8], #-0
300065fc:	dc76386c 	ldclle	8, cr3, [r6], #-432	; 0xfffffe50
30006600:	76cccccc 	strbvc	ip, [ip], ip, asr #25
30006604:	00000000 	andeq	r0, r0, r0
30006608:	30303000 	eorscc	r3, r0, r0
3000660c:	00000060 	andeq	r0, r0, r0, rrx
	...
30006618:	180c0000 	stmdane	ip, {}	; <UNPREDICTABLE>
3000661c:	30303030 	eorscc	r3, r0, r0, lsr r0
30006620:	0c183030 	ldceq	0, cr3, [r8], {48}	; 0x30
30006624:	00000000 	andeq	r0, r0, r0
30006628:	18300000 	ldmdane	r0!, {}	; <UNPREDICTABLE>
3000662c:	0c0c0c0c 	stceq	12, cr0, [ip], {12}
30006630:	30180c0c 	andscc	r0, r8, ip, lsl #24
	...
3000663c:	ff3c6600 			; <UNDEFINED> instruction: 0xff3c6600
30006640:	0000663c 	andeq	r6, r0, ip, lsr r6
	...
3000664c:	7e181800 	cdpvc	8, 1, cr1, cr8, cr0, {0}
30006650:	00001818 	andeq	r1, r0, r8, lsl r8
	...
30006660:	18181800 	ldmdane	r8, {fp, ip}
30006664:	00000030 	andeq	r0, r0, r0, lsr r0
30006668:	00000000 	andeq	r0, r0, r0
3000666c:	fe000000 	cdp2	0, 0, cr0, cr0, cr0, {0}
	...
30006680:	18180000 	ldmdane	r8, {}	; <UNPREDICTABLE>
	...
3000668c:	180c0602 	stmdane	ip, {r1, r9, sl}
30006690:	80c06030 	sbchi	r6, r0, r0, lsr r0
30006694:	00000000 	andeq	r0, r0, r0
30006698:	6c380000 	ldcvs	0, cr0, [r8], #-0
3000669c:	d6d6c6c6 	ldrble	ip, [r6], r6, asr #13
300066a0:	386cc6c6 	stmdacc	ip!, {r1, r2, r6, r7, r9, sl, lr, pc}^
300066a4:	00000000 	andeq	r0, r0, r0
300066a8:	38180000 	ldmdacc	r8, {}	; <UNPREDICTABLE>
300066ac:	18181878 	ldmdane	r8, {r3, r4, r5, r6, fp, ip}
300066b0:	7e181818 	mrcvc	8, 0, r1, cr8, cr8, {0}
300066b4:	00000000 	andeq	r0, r0, r0
300066b8:	c67c0000 	ldrbtgt	r0, [ip], -r0
300066bc:	30180c06 	andscc	r0, r8, r6, lsl #24
300066c0:	fec6c060 	cdp2	0, 12, cr12, cr6, cr0, {3}
300066c4:	00000000 	andeq	r0, r0, r0
300066c8:	c67c0000 	ldrbtgt	r0, [ip], -r0
300066cc:	063c0606 	ldrteq	r0, [ip], -r6, lsl #12
300066d0:	7cc60606 	stclvc	6, cr0, [r6], {6}
300066d4:	00000000 	andeq	r0, r0, r0
300066d8:	1c0c0000 	stcne	0, cr0, [ip], {-0}
300066dc:	fecc6c3c 	mcr2	12, 6, r6, cr12, cr12, {1}
300066e0:	1e0c0c0c 	cdpne	12, 0, cr0, cr12, cr12, {0}
300066e4:	00000000 	andeq	r0, r0, r0
300066e8:	c0fe0000 	rscsgt	r0, lr, r0
300066ec:	06fcc0c0 	ldrbteq	ip, [ip], r0, asr #1
300066f0:	7cc60606 	stclvc	6, cr0, [r6], {6}
300066f4:	00000000 	andeq	r0, r0, r0
300066f8:	60380000 	eorsvs	r0, r8, r0
300066fc:	c6fcc0c0 	ldrbtgt	ip, [ip], r0, asr #1
30006700:	7cc6c6c6 	stclvc	6, cr12, [r6], {198}	; 0xc6
30006704:	00000000 	andeq	r0, r0, r0
30006708:	c6fe0000 	ldrbtgt	r0, [lr], r0
3000670c:	180c0606 	stmdane	ip, {r1, r2, r9, sl}
30006710:	30303030 	eorscc	r3, r0, r0, lsr r0
30006714:	00000000 	andeq	r0, r0, r0
30006718:	c67c0000 	ldrbtgt	r0, [ip], -r0
3000671c:	c67cc6c6 	ldrbtgt	ip, [ip], -r6, asr #13
30006720:	7cc6c6c6 	stclvc	6, cr12, [r6], {198}	; 0xc6
30006724:	00000000 	andeq	r0, r0, r0
30006728:	c67c0000 	ldrbtgt	r0, [ip], -r0
3000672c:	067ec6c6 	ldrbteq	ip, [lr], -r6, asr #13
30006730:	780c0606 	stmdavc	ip, {r1, r2, r9, sl}
	...
3000673c:	00001818 	andeq	r1, r0, r8, lsl r8
30006740:	00181800 	andseq	r1, r8, r0, lsl #16
	...
3000674c:	00001818 	andeq	r1, r0, r8, lsl r8
30006750:	30181800 	andscc	r1, r8, r0, lsl #16
30006754:	00000000 	andeq	r0, r0, r0
30006758:	06000000 	streq	r0, [r0], -r0
3000675c:	6030180c 	eorsvs	r1, r0, ip, lsl #16
30006760:	060c1830 			; <UNDEFINED> instruction: 0x060c1830
	...
3000676c:	00007e00 	andeq	r7, r0, r0, lsl #28
30006770:	0000007e 	andeq	r0, r0, lr, ror r0
30006774:	00000000 	andeq	r0, r0, r0
30006778:	60000000 	andvs	r0, r0, r0
3000677c:	060c1830 			; <UNDEFINED> instruction: 0x060c1830
30006780:	6030180c 	eorsvs	r1, r0, ip, lsl #16
30006784:	00000000 	andeq	r0, r0, r0
30006788:	c67c0000 	ldrbtgt	r0, [ip], -r0
3000678c:	18180cc6 	ldmdane	r8, {r1, r2, r6, r7, sl, fp}
30006790:	18180018 	ldmdane	r8, {r3, r4}
30006794:	00000000 	andeq	r0, r0, r0
30006798:	7c000000 	stcvc	0, cr0, [r0], {-0}
3000679c:	dedec6c6 	cdple	6, 13, cr12, cr14, cr6, {6}
300067a0:	7cc0dcde 	stclvc	12, cr13, [r0], {222}	; 0xde
300067a4:	00000000 	andeq	r0, r0, r0
300067a8:	38100000 	ldmdacc	r0, {}	; <UNPREDICTABLE>
300067ac:	fec6c66c 	cdp2	6, 12, cr12, cr6, cr12, {3}
300067b0:	c6c6c6c6 	strbgt	ip, [r6], r6, asr #13
300067b4:	00000000 	andeq	r0, r0, r0
300067b8:	66fc0000 	ldrbtvs	r0, [ip], r0
300067bc:	667c6666 	ldrbtvs	r6, [ip], -r6, ror #12
300067c0:	fc666666 	stc2l	6, cr6, [r6], #-408	; 0xfffffe68
300067c4:	00000000 	andeq	r0, r0, r0
300067c8:	663c0000 	ldrtvs	r0, [ip], -r0
300067cc:	c0c0c0c2 	sbcgt	ip, r0, r2, asr #1
300067d0:	3c66c2c0 	sfmcc	f4, 3, [r6], #-768	; 0xfffffd00
300067d4:	00000000 	andeq	r0, r0, r0
300067d8:	6cf80000 	ldclvs	0, cr0, [r8]
300067dc:	66666666 	strbtvs	r6, [r6], -r6, ror #12
300067e0:	f86c6666 			; <UNDEFINED> instruction: 0xf86c6666
300067e4:	00000000 	andeq	r0, r0, r0
300067e8:	66fe0000 	ldrbtvs	r0, [lr], r0
300067ec:	68786862 	ldmdavs	r8!, {r1, r5, r6, fp, sp, lr}^
300067f0:	fe666260 	cdp2	2, 6, cr6, cr6, cr0, {3}
300067f4:	00000000 	andeq	r0, r0, r0
300067f8:	66fe0000 	ldrbtvs	r0, [lr], r0
300067fc:	68786862 	ldmdavs	r8!, {r1, r5, r6, fp, sp, lr}^
30006800:	f0606060 			; <UNDEFINED> instruction: 0xf0606060
30006804:	00000000 	andeq	r0, r0, r0
30006808:	663c0000 	ldrtvs	r0, [ip], -r0
3000680c:	dec0c0c2 	cdple	0, 12, cr12, cr0, cr2, {6}
30006810:	3a66c6c6 	bcc	319b8330 <__bss_end+0x19b0ac8>
30006814:	00000000 	andeq	r0, r0, r0
30006818:	c6c60000 	strbgt	r0, [r6], r0
3000681c:	c6fec6c6 	ldrbtgt	ip, [lr], r6, asr #13
30006820:	c6c6c6c6 	strbgt	ip, [r6], r6, asr #13
30006824:	00000000 	andeq	r0, r0, r0
30006828:	183c0000 	ldmdane	ip!, {}	; <UNPREDICTABLE>
3000682c:	18181818 	ldmdane	r8, {r3, r4, fp, ip}
30006830:	3c181818 	ldccc	8, cr1, [r8], {24}
30006834:	00000000 	andeq	r0, r0, r0
30006838:	0c1e0000 	ldceq	0, cr0, [lr], {-0}
3000683c:	0c0c0c0c 	stceq	12, cr0, [ip], {12}
30006840:	78cccccc 	stmiavc	ip, {r2, r3, r6, r7, sl, fp, lr, pc}^
30006844:	00000000 	andeq	r0, r0, r0
30006848:	66e60000 	strbtvs	r0, [r6], r0
3000684c:	78786c66 	ldmdavc	r8!, {r1, r2, r5, r6, sl, fp, sp, lr}^
30006850:	e666666c 	strbt	r6, [r6], -ip, ror #12
30006854:	00000000 	andeq	r0, r0, r0
30006858:	60f00000 	rscsvs	r0, r0, r0
3000685c:	60606060 	rsbvs	r6, r0, r0, rrx
30006860:	fe666260 	cdp2	2, 6, cr6, cr6, cr0, {3}
30006864:	00000000 	andeq	r0, r0, r0
30006868:	eec60000 	cdp	0, 12, cr0, cr6, cr0, {0}
3000686c:	c6d6fefe 			; <UNDEFINED> instruction: 0xc6d6fefe
30006870:	c6c6c6c6 	strbgt	ip, [r6], r6, asr #13
30006874:	00000000 	andeq	r0, r0, r0
30006878:	e6c60000 	strb	r0, [r6], r0
3000687c:	cedefef6 	mrcgt	14, 6, APSR_nzcv, cr14, cr6, {7}
30006880:	c6c6c6c6 	strbgt	ip, [r6], r6, asr #13
30006884:	00000000 	andeq	r0, r0, r0
30006888:	c67c0000 	ldrbtgt	r0, [ip], -r0
3000688c:	c6c6c6c6 	strbgt	ip, [r6], r6, asr #13
30006890:	7cc6c6c6 	stclvc	6, cr12, [r6], {198}	; 0xc6
30006894:	00000000 	andeq	r0, r0, r0
30006898:	66fc0000 	ldrbtvs	r0, [ip], r0
3000689c:	607c6666 	rsbsvs	r6, ip, r6, ror #12
300068a0:	f0606060 			; <UNDEFINED> instruction: 0xf0606060
300068a4:	00000000 	andeq	r0, r0, r0
300068a8:	c67c0000 	ldrbtgt	r0, [ip], -r0
300068ac:	c6c6c6c6 	strbgt	ip, [r6], r6, asr #13
300068b0:	7cded6c6 	ldclvc	6, cr13, [lr], {198}	; 0xc6
300068b4:	00000e0c 	andeq	r0, r0, ip, lsl #28
300068b8:	66fc0000 	ldrbtvs	r0, [ip], r0
300068bc:	6c7c6666 	ldclvs	6, cr6, [ip], #-408	; 0xfffffe68
300068c0:	e6666666 	strbt	r6, [r6], -r6, ror #12
300068c4:	00000000 	andeq	r0, r0, r0
300068c8:	c67c0000 	ldrbtgt	r0, [ip], -r0
300068cc:	0c3860c6 	ldceq	0, cr6, [r8], #-792	; 0xfffffce8
300068d0:	7cc6c606 	stclvc	6, cr12, [r6], {6}
300068d4:	00000000 	andeq	r0, r0, r0
300068d8:	7e7e0000 	cdpvc	0, 7, cr0, cr14, cr0, {0}
300068dc:	1818185a 	ldmdane	r8, {r1, r3, r4, r6, fp, ip}
300068e0:	3c181818 	ldccc	8, cr1, [r8], {24}
300068e4:	00000000 	andeq	r0, r0, r0
300068e8:	c6c60000 	strbgt	r0, [r6], r0
300068ec:	c6c6c6c6 	strbgt	ip, [r6], r6, asr #13
300068f0:	7cc6c6c6 	stclvc	6, cr12, [r6], {198}	; 0xc6
300068f4:	00000000 	andeq	r0, r0, r0
300068f8:	c6c60000 	strbgt	r0, [r6], r0
300068fc:	c6c6c6c6 	strbgt	ip, [r6], r6, asr #13
30006900:	10386cc6 	eorsne	r6, r8, r6, asr #25
30006904:	00000000 	andeq	r0, r0, r0
30006908:	c6c60000 	strbgt	r0, [r6], r0
3000690c:	d6d6c6c6 	ldrble	ip, [r6], r6, asr #13
30006910:	6ceefed6 	stclvs	14, cr15, [lr], #856	; 0x358
30006914:	00000000 	andeq	r0, r0, r0
30006918:	c6c60000 	strbgt	r0, [r6], r0
3000691c:	38387c6c 	ldmdacc	r8!, {r2, r3, r5, r6, sl, fp, ip, sp, lr}
30006920:	c6c66c7c 	uxtab16gt	r6, r6, ip, ROR #24
30006924:	00000000 	andeq	r0, r0, r0
30006928:	66660000 	strbtvs	r0, [r6], -r0
3000692c:	183c6666 	ldmdane	ip!, {r1, r2, r5, r6, r9, sl, sp, lr}
30006930:	3c181818 	ldccc	8, cr1, [r8], {24}
30006934:	00000000 	andeq	r0, r0, r0
30006938:	c6fe0000 	ldrbtgt	r0, [lr], r0
3000693c:	30180c86 	andscc	r0, r8, r6, lsl #25
30006940:	fec6c260 	cdp2	2, 12, cr12, cr6, cr0, {3}
30006944:	00000000 	andeq	r0, r0, r0
30006948:	303c0000 	eorscc	r0, ip, r0
3000694c:	30303030 	eorscc	r3, r0, r0, lsr r0
30006950:	3c303030 	ldccc	0, cr3, [r0], #-192	; 0xffffff40
30006954:	00000000 	andeq	r0, r0, r0
30006958:	80000000 	andhi	r0, r0, r0
3000695c:	3870e0c0 	ldmdacc	r0!, {r6, r7, sp, lr, pc}^
30006960:	02060e1c 	andeq	r0, r6, #28, 28	; 0x1c0
30006964:	00000000 	andeq	r0, r0, r0
30006968:	0c3c0000 	ldceq	0, cr0, [ip], #-0
3000696c:	0c0c0c0c 	stceq	12, cr0, [ip], {12}
30006970:	3c0c0c0c 	stccc	12, cr0, [ip], {12}
30006974:	00000000 	andeq	r0, r0, r0
30006978:	c66c3810 			; <UNDEFINED> instruction: 0xc66c3810
	...
30006994:	0000ff00 	andeq	pc, r0, r0, lsl #30
30006998:	0c183000 	ldceq	0, cr3, [r8], {-0}
	...
300069ac:	7c0c7800 	stcvc	8, cr7, [ip], {-0}
300069b0:	76cccccc 	strbvc	ip, [ip], ip, asr #25
300069b4:	00000000 	andeq	r0, r0, r0
300069b8:	60e00000 	rscvs	r0, r0, r0
300069bc:	666c7860 	strbtvs	r7, [ip], -r0, ror #16
300069c0:	7c666666 	stclvc	6, cr6, [r6], #-408	; 0xfffffe68
	...
300069cc:	c0c67c00 	sbcgt	r7, r6, r0, lsl #24
300069d0:	7cc6c0c0 	stclvc	0, cr12, [r6], {192}	; 0xc0
300069d4:	00000000 	andeq	r0, r0, r0
300069d8:	0c1c0000 	ldceq	0, cr0, [ip], {-0}
300069dc:	cc6c3c0c 	stclgt	12, cr3, [ip], #-48	; 0xffffffd0
300069e0:	76cccccc 	strbvc	ip, [ip], ip, asr #25
	...
300069ec:	fec67c00 	cdp2	12, 12, cr7, cr6, cr0, {0}
300069f0:	7cc6c0c0 	stclvc	0, cr12, [r6], {192}	; 0xc0
300069f4:	00000000 	andeq	r0, r0, r0
300069f8:	361c0000 	ldrcc	r0, [ip], -r0
300069fc:	30783032 	rsbscc	r3, r8, r2, lsr r0
30006a00:	78303030 	ldmdavc	r0!, {r4, r5, ip, sp}
	...
30006a0c:	cccc7600 	stclgt	6, cr7, [ip], {0}
30006a10:	7ccccccc 	stclvc	12, cr12, [ip], {204}	; 0xcc
30006a14:	0078cc0c 	rsbseq	ip, r8, ip, lsl #24
30006a18:	60e00000 	rscvs	r0, r0, r0
30006a1c:	66766c60 	ldrbtvs	r6, [r6], -r0, ror #24
30006a20:	e6666666 	strbt	r6, [r6], -r6, ror #12
30006a24:	00000000 	andeq	r0, r0, r0
30006a28:	18180000 	ldmdane	r8, {}	; <UNPREDICTABLE>
30006a2c:	18183800 	ldmdane	r8, {fp, ip, sp}
30006a30:	3c181818 	ldccc	8, cr1, [r8], {24}
30006a34:	00000000 	andeq	r0, r0, r0
30006a38:	06060000 	streq	r0, [r6], -r0
30006a3c:	06060e00 	streq	r0, [r6], -r0, lsl #28
30006a40:	06060606 	streq	r0, [r6], -r6, lsl #12
30006a44:	003c6666 	eorseq	r6, ip, r6, ror #12
30006a48:	60e00000 	rscvs	r0, r0, r0
30006a4c:	786c6660 	stmdavc	ip!, {r5, r6, r9, sl, sp, lr}^
30006a50:	e6666c78 			; <UNDEFINED> instruction: 0xe6666c78
30006a54:	00000000 	andeq	r0, r0, r0
30006a58:	18380000 	ldmdane	r8!, {}	; <UNPREDICTABLE>
30006a5c:	18181818 	ldmdane	r8, {r3, r4, fp, ip}
30006a60:	3c181818 	ldccc	8, cr1, [r8], {24}
	...
30006a6c:	d6feec00 	ldrbtle	lr, [lr], r0, lsl #24
30006a70:	c6d6d6d6 			; <UNDEFINED> instruction: 0xc6d6d6d6
	...
30006a7c:	6666dc00 	strbtvs	sp, [r6], -r0, lsl #24
30006a80:	66666666 	strbtvs	r6, [r6], -r6, ror #12
	...
30006a8c:	c6c67c00 	strbgt	r7, [r6], r0, lsl #24
30006a90:	7cc6c6c6 	stclvc	6, cr12, [r6], {198}	; 0xc6
	...
30006a9c:	6666dc00 	strbtvs	sp, [r6], -r0, lsl #24
30006aa0:	7c666666 	stclvc	6, cr6, [r6], #-408	; 0xfffffe68
30006aa4:	00f06060 	rscseq	r6, r0, r0, rrx
30006aa8:	00000000 	andeq	r0, r0, r0
30006aac:	cccc7600 	stclgt	6, cr7, [ip], {0}
30006ab0:	7ccccccc 	stclvc	12, cr12, [ip], {204}	; 0xcc
30006ab4:	001e0c0c 	andseq	r0, lr, ip, lsl #24
30006ab8:	00000000 	andeq	r0, r0, r0
30006abc:	6676dc00 	ldrbtvs	sp, [r6], -r0, lsl #24
30006ac0:	f0606060 			; <UNDEFINED> instruction: 0xf0606060
	...
30006acc:	60c67c00 	sbcvs	r7, r6, r0, lsl #24
30006ad0:	7cc60c38 	stclvc	12, cr0, [r6], {56}	; 0x38
30006ad4:	00000000 	andeq	r0, r0, r0
30006ad8:	30100000 	andscc	r0, r0, r0
30006adc:	3030fc30 	eorscc	pc, r0, r0, lsr ip	; <UNPREDICTABLE>
30006ae0:	1c363030 	ldcne	0, cr3, [r6], #-192	; 0xffffff40
	...
30006aec:	cccccc00 	stclgt	12, cr12, [ip], {0}
30006af0:	76cccccc 	strbvc	ip, [ip], ip, asr #25
	...
30006afc:	c6c6c600 	strbgt	ip, [r6], r0, lsl #12
30006b00:	386cc6c6 	stmdacc	ip!, {r1, r2, r6, r7, r9, sl, lr, pc}^
	...
30006b0c:	d6c6c600 	strble	ip, [r6], r0, lsl #12
30006b10:	6cfed6d6 	ldclvs	6, cr13, [lr], #856	; 0x358
	...
30006b1c:	386cc600 	stmdacc	ip!, {r9, sl, lr, pc}^
30006b20:	c66c3838 			; <UNDEFINED> instruction: 0xc66c3838
	...
30006b2c:	c6c6c600 	strbgt	ip, [r6], r0, lsl #12
30006b30:	7ec6c6c6 	cdpvc	6, 12, cr12, cr6, cr6, {6}
30006b34:	00f80c06 	rscseq	r0, r8, r6, lsl #24
30006b38:	00000000 	andeq	r0, r0, r0
30006b3c:	18ccfe00 	stmiane	ip, {r9, sl, fp, ip, sp, lr, pc}^
30006b40:	fec66030 	mcr2	0, 6, r6, cr6, cr0, {1}
30006b44:	00000000 	andeq	r0, r0, r0
30006b48:	180e0000 	stmdane	lr, {}	; <UNPREDICTABLE>
30006b4c:	18701818 	ldmdane	r0!, {r3, r4, fp, ip}^
30006b50:	0e181818 	mrceq	8, 0, r1, cr8, cr8, {0}
30006b54:	00000000 	andeq	r0, r0, r0
30006b58:	18180000 	ldmdane	r8, {}	; <UNPREDICTABLE>
30006b5c:	18181818 	ldmdane	r8, {r3, r4, fp, ip}
30006b60:	18181818 	ldmdane	r8, {r3, r4, fp, ip}
30006b64:	00000000 	andeq	r0, r0, r0
30006b68:	18700000 	ldmdane	r0!, {}^	; <UNPREDICTABLE>
30006b6c:	180e1818 	stmdane	lr, {r3, r4, fp, ip}
30006b70:	70181818 	andsvc	r1, r8, r8, lsl r8
30006b74:	00000000 	andeq	r0, r0, r0
30006b78:	00dc7600 	sbcseq	r7, ip, r0, lsl #12
	...
30006b8c:	c66c3810 			; <UNDEFINED> instruction: 0xc66c3810
30006b90:	00fec6c6 	rscseq	ip, lr, r6, asr #13
30006b94:	00000000 	andeq	r0, r0, r0
30006b98:	663c0000 	ldrtvs	r0, [ip], -r0
30006b9c:	c0c0c0c2 	sbcgt	ip, r0, r2, asr #1
30006ba0:	3c66c2c0 	sfmcc	f4, 3, [r6], #-768	; 0xfffffd00
30006ba4:	00007018 	andeq	r7, r0, r8, lsl r0
30006ba8:	00cc0000 	sbceq	r0, ip, r0
30006bac:	cccccc00 	stclgt	12, cr12, [ip], {0}
30006bb0:	76cccccc 	strbvc	ip, [ip], ip, asr #25
30006bb4:	00000000 	andeq	r0, r0, r0
30006bb8:	30180c00 	andscc	r0, r8, r0, lsl #24
30006bbc:	fec67c00 	cdp2	12, 12, cr7, cr6, cr0, {0}
30006bc0:	7cc6c0c0 	stclvc	0, cr12, [r6], {192}	; 0xc0
30006bc4:	00000000 	andeq	r0, r0, r0
30006bc8:	6c381000 	ldcvs	0, cr1, [r8], #-0
30006bcc:	7c0c7800 	stcvc	8, cr7, [ip], {-0}
30006bd0:	76cccccc 	strbvc	ip, [ip], ip, asr #25
30006bd4:	00000000 	andeq	r0, r0, r0
30006bd8:	00cc0000 	sbceq	r0, ip, r0
30006bdc:	7c0c7800 	stcvc	8, cr7, [ip], {-0}
30006be0:	76cccccc 	strbvc	ip, [ip], ip, asr #25
30006be4:	00000000 	andeq	r0, r0, r0
30006be8:	18306000 	ldmdane	r0!, {sp, lr}
30006bec:	7c0c7800 	stcvc	8, cr7, [ip], {-0}
30006bf0:	76cccccc 	strbvc	ip, [ip], ip, asr #25
30006bf4:	00000000 	andeq	r0, r0, r0
30006bf8:	386c3800 	stmdacc	ip!, {fp, ip, sp}^
30006bfc:	7c0c7800 	stcvc	8, cr7, [ip], {-0}
30006c00:	76cccccc 	strbvc	ip, [ip], ip, asr #25
	...
30006c0c:	c0c67c00 	sbcgt	r7, r6, r0, lsl #24
30006c10:	7cc6c0c0 	stclvc	0, cr12, [r6], {192}	; 0xc0
30006c14:	00007018 	andeq	r7, r0, r8, lsl r0
30006c18:	6c381000 	ldcvs	0, cr1, [r8], #-0
30006c1c:	fec67c00 	cdp2	12, 12, cr7, cr6, cr0, {0}
30006c20:	7cc6c0c0 	stclvc	0, cr12, [r6], {192}	; 0xc0
30006c24:	00000000 	andeq	r0, r0, r0
30006c28:	00c60000 	sbceq	r0, r6, r0
30006c2c:	fec67c00 	cdp2	12, 12, cr7, cr6, cr0, {0}
30006c30:	7cc6c0c0 	stclvc	0, cr12, [r6], {192}	; 0xc0
30006c34:	00000000 	andeq	r0, r0, r0
30006c38:	18306000 	ldmdane	r0!, {sp, lr}
30006c3c:	fec67c00 	cdp2	12, 12, cr7, cr6, cr0, {0}
30006c40:	7cc6c0c0 	stclvc	0, cr12, [r6], {192}	; 0xc0
30006c44:	00000000 	andeq	r0, r0, r0
30006c48:	00660000 	rsbeq	r0, r6, r0
30006c4c:	18183800 	ldmdane	r8, {fp, ip, sp}
30006c50:	3c181818 	ldccc	8, cr1, [r8], {24}
30006c54:	00000000 	andeq	r0, r0, r0
30006c58:	663c1800 	ldrtvs	r1, [ip], -r0, lsl #16
30006c5c:	18183800 	ldmdane	r8, {fp, ip, sp}
30006c60:	3c181818 	ldccc	8, cr1, [r8], {24}
30006c64:	00000000 	andeq	r0, r0, r0
30006c68:	18306000 	ldmdane	r0!, {sp, lr}
30006c6c:	18183800 	ldmdane	r8, {fp, ip, sp}
30006c70:	3c181818 	ldccc	8, cr1, [r8], {24}
30006c74:	00000000 	andeq	r0, r0, r0
30006c78:	1000c600 	andne	ip, r0, r0, lsl #12
30006c7c:	c6c66c38 			; <UNDEFINED> instruction: 0xc6c66c38
30006c80:	c6c6c6fe 			; <UNDEFINED> instruction: 0xc6c6c6fe
30006c84:	00000000 	andeq	r0, r0, r0
30006c88:	10386c38 	eorsne	r6, r8, r8, lsr ip
30006c8c:	fec66c38 	mcr2	12, 6, r6, cr6, cr8, {1}
30006c90:	c6c6c6c6 	strbgt	ip, [r6], r6, asr #13
30006c94:	00000000 	andeq	r0, r0, r0
30006c98:	fe00180c 	vcmla.f16	d1, d0, d12[0], #0
30006c9c:	78686266 	stmdavc	r8!, {r1, r2, r5, r6, r9, sp, lr}^
30006ca0:	fe666268 	cdp2	2, 6, cr6, cr6, cr8, {3}
	...
30006cac:	3636ec00 	ldrtcc	lr, [r6], -r0, lsl #24
30006cb0:	6ed8d87e 	mrcvs	8, 6, sp, cr8, cr14, {3}
30006cb4:	00000000 	andeq	r0, r0, r0
30006cb8:	6c3e0000 	ldcvs	0, cr0, [lr], #-0
30006cbc:	ccfecccc 	ldclgt	12, cr12, [lr], #816	; 0x330
30006cc0:	cecccccc 	cdpgt	12, 12, cr12, cr12, cr12, {6}
30006cc4:	00000000 	andeq	r0, r0, r0
30006cc8:	6c381000 	ldcvs	0, cr1, [r8], #-0
30006ccc:	c6c67c00 	strbgt	r7, [r6], r0, lsl #24
30006cd0:	7cc6c6c6 	stclvc	6, cr12, [r6], {198}	; 0xc6
30006cd4:	00000000 	andeq	r0, r0, r0
30006cd8:	00c60000 	sbceq	r0, r6, r0
30006cdc:	c6c67c00 	strbgt	r7, [r6], r0, lsl #24
30006ce0:	7cc6c6c6 	stclvc	6, cr12, [r6], {198}	; 0xc6
30006ce4:	00000000 	andeq	r0, r0, r0
30006ce8:	18306000 	ldmdane	r0!, {sp, lr}
30006cec:	c6c67c00 	strbgt	r7, [r6], r0, lsl #24
30006cf0:	7cc6c6c6 	stclvc	6, cr12, [r6], {198}	; 0xc6
30006cf4:	00000000 	andeq	r0, r0, r0
30006cf8:	cc783000 	ldclgt	0, cr3, [r8], #-0
30006cfc:	cccccc00 	stclgt	12, cr12, [ip], {0}
30006d00:	76cccccc 	strbvc	ip, [ip], ip, asr #25
30006d04:	00000000 	andeq	r0, r0, r0
30006d08:	18306000 	ldmdane	r0!, {sp, lr}
30006d0c:	cccccc00 	stclgt	12, cr12, [ip], {0}
30006d10:	76cccccc 	strbvc	ip, [ip], ip, asr #25
30006d14:	00000000 	andeq	r0, r0, r0
30006d18:	00c60000 	sbceq	r0, r6, r0
30006d1c:	c6c6c600 	strbgt	ip, [r6], r0, lsl #12
30006d20:	7ec6c6c6 	cdpvc	6, 12, cr12, cr6, cr6, {6}
30006d24:	00780c06 	rsbseq	r0, r8, r6, lsl #24
30006d28:	7c00c600 	stcvc	6, cr12, [r0], {-0}
30006d2c:	c6c6c6c6 	strbgt	ip, [r6], r6, asr #13
30006d30:	7cc6c6c6 	stclvc	6, cr12, [r6], {198}	; 0xc6
30006d34:	00000000 	andeq	r0, r0, r0
30006d38:	c600c600 	strgt	ip, [r0], -r0, lsl #12
30006d3c:	c6c6c6c6 	strbgt	ip, [r6], r6, asr #13
30006d40:	7cc6c6c6 	stclvc	6, cr12, [r6], {198}	; 0xc6
30006d44:	00000000 	andeq	r0, r0, r0
30006d48:	7c181800 	ldcvc	8, cr1, [r8], {-0}
30006d4c:	c0c0c0c6 	sbcgt	ip, r0, r6, asr #1
30006d50:	18187cc6 	ldmdane	r8, {r1, r2, r6, r7, sl, fp, ip, sp, lr}
30006d54:	00000000 	andeq	r0, r0, r0
30006d58:	646c3800 	strbtvs	r3, [ip], #-2048	; 0xfffff800
30006d5c:	6060f060 	rsbvs	pc, r0, r0, rrx
30006d60:	fce66060 	stc2l	0, cr6, [r6], #384	; 0x180
30006d64:	00000000 	andeq	r0, r0, r0
30006d68:	66660000 	strbtvs	r0, [r6], -r0
30006d6c:	187e183c 	ldmdane	lr!, {r2, r3, r4, r5, fp, ip}^
30006d70:	1818187e 	ldmdane	r8, {r1, r2, r3, r4, r5, r6, fp, ip}
30006d74:	00000000 	andeq	r0, r0, r0
30006d78:	ccccf800 	stclgt	8, cr15, [ip], {0}
30006d7c:	deccc4f8 	mcrle	4, 6, ip, cr12, cr8, {7}
30006d80:	c6cccccc 	strbgt	ip, [ip], ip, asr #25
30006d84:	00000000 	andeq	r0, r0, r0
30006d88:	181b0e00 	ldmdane	fp, {r9, sl, fp}
30006d8c:	187e1818 	ldmdane	lr!, {r3, r4, fp, ip}^
30006d90:	70d81818 	sbcsvc	r1, r8, r8, lsl r8
30006d94:	00000000 	andeq	r0, r0, r0
30006d98:	60301800 	eorsvs	r1, r0, r0, lsl #16
30006d9c:	7c0c7800 	stcvc	8, cr7, [ip], {-0}
30006da0:	76cccccc 	strbvc	ip, [ip], ip, asr #25
30006da4:	00000000 	andeq	r0, r0, r0
30006da8:	30180c00 	andscc	r0, r8, r0, lsl #24
30006dac:	18183800 	ldmdane	r8, {fp, ip, sp}
30006db0:	3c181818 	ldccc	8, cr1, [r8], {24}
30006db4:	00000000 	andeq	r0, r0, r0
30006db8:	60301800 	eorsvs	r1, r0, r0, lsl #16
30006dbc:	c6c67c00 	strbgt	r7, [r6], r0, lsl #24
30006dc0:	7cc6c6c6 	stclvc	6, cr12, [r6], {198}	; 0xc6
30006dc4:	00000000 	andeq	r0, r0, r0
30006dc8:	60301800 	eorsvs	r1, r0, r0, lsl #16
30006dcc:	cccccc00 	stclgt	12, cr12, [ip], {0}
30006dd0:	76cccccc 	strbvc	ip, [ip], ip, asr #25
30006dd4:	00000000 	andeq	r0, r0, r0
30006dd8:	dc760000 	ldclle	0, cr0, [r6], #-0
30006ddc:	6666dc00 	strbtvs	sp, [r6], -r0, lsl #24
30006de0:	66666666 	strbtvs	r6, [r6], -r6, ror #12
30006de4:	00000000 	andeq	r0, r0, r0
30006de8:	c600dc76 			; <UNDEFINED> instruction: 0xc600dc76
30006dec:	defef6e6 	cdple	6, 15, cr15, cr14, cr6, {7}
30006df0:	c6c6c6ce 	strbgt	ip, [r6], lr, asr #13
30006df4:	00000000 	andeq	r0, r0, r0
30006df8:	6c3c0000 	ldcvs	0, cr0, [ip], #-0
30006dfc:	7e003e6c 	cdpvc	14, 0, cr3, cr0, cr12, {3}
	...
30006e08:	6c380000 	ldcvs	0, cr0, [r8], #-0
30006e0c:	7c00386c 	stcvc	8, cr3, [r0], {108}	; 0x6c
	...
30006e18:	30300000 	eorscc	r0, r0, r0
30006e1c:	60303000 	eorsvs	r3, r0, r0
30006e20:	7cc6c6c0 	stclvc	6, cr12, [r6], {192}	; 0xc0
	...
30006e2c:	c0fe0000 	rscsgt	r0, lr, r0
30006e30:	00c0c0c0 	sbceq	ip, r0, r0, asr #1
	...
30006e3c:	06fe0000 	ldrbteq	r0, [lr], r0
30006e40:	00060606 	andeq	r0, r6, r6, lsl #12
30006e44:	00000000 	andeq	r0, r0, r0
30006e48:	62e06000 	rscvs	r6, r0, #0
30006e4c:	30186c66 	andscc	r6, r8, r6, ror #24
30006e50:	0c86dc60 	stceq	12, cr13, [r6], {96}	; 0x60
30006e54:	00003e18 	andeq	r3, r0, r8, lsl lr
30006e58:	62e06000 	rscvs	r6, r0, #0
30006e5c:	30186c66 	andscc	r6, r8, r6, ror #24
30006e60:	3f9ace66 	svccc	0x009ace66
30006e64:	00000606 	andeq	r0, r0, r6, lsl #12
30006e68:	18180000 	ldmdane	r8, {}	; <UNPREDICTABLE>
30006e6c:	18181800 	ldmdane	r8, {fp, ip}
30006e70:	183c3c3c 	ldmdane	ip!, {r2, r3, r4, r5, sl, fp, ip, sp}
	...
30006e7c:	d86c3600 	stmdale	ip!, {r9, sl, ip, sp}^
30006e80:	0000366c 	andeq	r3, r0, ip, ror #12
	...
30006e8c:	366cd800 	strbtcc	sp, [ip], -r0, lsl #16
30006e90:	0000d86c 	andeq	sp, r0, ip, ror #16
30006e94:	00000000 	andeq	r0, r0, r0
30006e98:	44114411 	ldrmi	r4, [r1], #-1041	; 0xfffffbef
30006e9c:	44114411 	ldrmi	r4, [r1], #-1041	; 0xfffffbef
30006ea0:	44114411 	ldrmi	r4, [r1], #-1041	; 0xfffffbef
30006ea4:	44114411 	ldrmi	r4, [r1], #-1041	; 0xfffffbef
30006ea8:	aa55aa55 	bge	31571804 <__bss_end+0x1569f9c>
30006eac:	aa55aa55 	bge	31571808 <__bss_end+0x1569fa0>
30006eb0:	aa55aa55 	bge	3157180c <__bss_end+0x1569fa4>
30006eb4:	aa55aa55 	bge	31571810 <__bss_end+0x1569fa8>
30006eb8:	77dd77dd 			; <UNDEFINED> instruction: 0x77dd77dd
30006ebc:	77dd77dd 			; <UNDEFINED> instruction: 0x77dd77dd
30006ec0:	77dd77dd 			; <UNDEFINED> instruction: 0x77dd77dd
30006ec4:	77dd77dd 			; <UNDEFINED> instruction: 0x77dd77dd
30006ec8:	18181818 	ldmdane	r8, {r3, r4, fp, ip}
30006ecc:	18181818 	ldmdane	r8, {r3, r4, fp, ip}
30006ed0:	18181818 	ldmdane	r8, {r3, r4, fp, ip}
30006ed4:	18181818 	ldmdane	r8, {r3, r4, fp, ip}
30006ed8:	18181818 	ldmdane	r8, {r3, r4, fp, ip}
30006edc:	f8181818 			; <UNDEFINED> instruction: 0xf8181818
30006ee0:	18181818 	ldmdane	r8, {r3, r4, fp, ip}
30006ee4:	18181818 	ldmdane	r8, {r3, r4, fp, ip}
30006ee8:	18181818 	ldmdane	r8, {r3, r4, fp, ip}
30006eec:	f818f818 			; <UNDEFINED> instruction: 0xf818f818
30006ef0:	18181818 	ldmdane	r8, {r3, r4, fp, ip}
30006ef4:	18181818 	ldmdane	r8, {r3, r4, fp, ip}
30006ef8:	36363636 			; <UNDEFINED> instruction: 0x36363636
30006efc:	f6363636 			; <UNDEFINED> instruction: 0xf6363636
30006f00:	36363636 			; <UNDEFINED> instruction: 0x36363636
30006f04:	36363636 			; <UNDEFINED> instruction: 0x36363636
30006f08:	00000000 	andeq	r0, r0, r0
30006f0c:	fe000000 	cdp2	0, 0, cr0, cr0, cr0, {0}
30006f10:	36363636 			; <UNDEFINED> instruction: 0x36363636
30006f14:	36363636 			; <UNDEFINED> instruction: 0x36363636
30006f18:	00000000 	andeq	r0, r0, r0
30006f1c:	f818f800 			; <UNDEFINED> instruction: 0xf818f800
30006f20:	18181818 	ldmdane	r8, {r3, r4, fp, ip}
30006f24:	18181818 	ldmdane	r8, {r3, r4, fp, ip}
30006f28:	36363636 			; <UNDEFINED> instruction: 0x36363636
30006f2c:	f606f636 			; <UNDEFINED> instruction: 0xf606f636
30006f30:	36363636 			; <UNDEFINED> instruction: 0x36363636
30006f34:	36363636 			; <UNDEFINED> instruction: 0x36363636
30006f38:	36363636 			; <UNDEFINED> instruction: 0x36363636
30006f3c:	36363636 			; <UNDEFINED> instruction: 0x36363636
30006f40:	36363636 			; <UNDEFINED> instruction: 0x36363636
30006f44:	36363636 			; <UNDEFINED> instruction: 0x36363636
30006f48:	00000000 	andeq	r0, r0, r0
30006f4c:	f606fe00 			; <UNDEFINED> instruction: 0xf606fe00
30006f50:	36363636 			; <UNDEFINED> instruction: 0x36363636
30006f54:	36363636 			; <UNDEFINED> instruction: 0x36363636
30006f58:	36363636 			; <UNDEFINED> instruction: 0x36363636
30006f5c:	fe06f636 	mcr2	6, 0, pc, cr6, cr6, {1}	; <UNPREDICTABLE>
	...
30006f68:	36363636 			; <UNDEFINED> instruction: 0x36363636
30006f6c:	fe363636 	mrc2	6, 1, r3, cr6, cr6, {1}
	...
30006f78:	18181818 	ldmdane	r8, {r3, r4, fp, ip}
30006f7c:	f818f818 			; <UNDEFINED> instruction: 0xf818f818
	...
30006f8c:	f8000000 			; <UNDEFINED> instruction: 0xf8000000
30006f90:	18181818 	ldmdane	r8, {r3, r4, fp, ip}
30006f94:	18181818 	ldmdane	r8, {r3, r4, fp, ip}
30006f98:	18181818 	ldmdane	r8, {r3, r4, fp, ip}
30006f9c:	1f181818 	svcne	0x00181818
	...
30006fa8:	18181818 	ldmdane	r8, {r3, r4, fp, ip}
30006fac:	ff181818 			; <UNDEFINED> instruction: 0xff181818
	...
30006fbc:	ff000000 			; <UNDEFINED> instruction: 0xff000000
30006fc0:	18181818 	ldmdane	r8, {r3, r4, fp, ip}
30006fc4:	18181818 	ldmdane	r8, {r3, r4, fp, ip}
30006fc8:	18181818 	ldmdane	r8, {r3, r4, fp, ip}
30006fcc:	1f181818 	svcne	0x00181818
30006fd0:	18181818 	ldmdane	r8, {r3, r4, fp, ip}
30006fd4:	18181818 	ldmdane	r8, {r3, r4, fp, ip}
30006fd8:	00000000 	andeq	r0, r0, r0
30006fdc:	ff000000 			; <UNDEFINED> instruction: 0xff000000
	...
30006fe8:	18181818 	ldmdane	r8, {r3, r4, fp, ip}
30006fec:	ff181818 			; <UNDEFINED> instruction: 0xff181818
30006ff0:	18181818 	ldmdane	r8, {r3, r4, fp, ip}
30006ff4:	18181818 	ldmdane	r8, {r3, r4, fp, ip}
30006ff8:	18181818 	ldmdane	r8, {r3, r4, fp, ip}
30006ffc:	1f181f18 	svcne	0x00181f18
30007000:	18181818 	ldmdane	r8, {r3, r4, fp, ip}
30007004:	18181818 	ldmdane	r8, {r3, r4, fp, ip}
30007008:	36363636 			; <UNDEFINED> instruction: 0x36363636
3000700c:	37363636 			; <UNDEFINED> instruction: 0x37363636
30007010:	36363636 			; <UNDEFINED> instruction: 0x36363636
30007014:	36363636 			; <UNDEFINED> instruction: 0x36363636
30007018:	36363636 			; <UNDEFINED> instruction: 0x36363636
3000701c:	3f303736 	svccc	0x00303736
	...
3000702c:	37303f00 	ldrcc	r3, [r0, -r0, lsl #30]!
30007030:	36363636 			; <UNDEFINED> instruction: 0x36363636
30007034:	36363636 			; <UNDEFINED> instruction: 0x36363636
30007038:	36363636 			; <UNDEFINED> instruction: 0x36363636
3000703c:	ff00f736 			; <UNDEFINED> instruction: 0xff00f736
	...
3000704c:	f700ff00 			; <UNDEFINED> instruction: 0xf700ff00
30007050:	36363636 			; <UNDEFINED> instruction: 0x36363636
30007054:	36363636 			; <UNDEFINED> instruction: 0x36363636
30007058:	36363636 			; <UNDEFINED> instruction: 0x36363636
3000705c:	37303736 			; <UNDEFINED> instruction: 0x37303736
30007060:	36363636 			; <UNDEFINED> instruction: 0x36363636
30007064:	36363636 			; <UNDEFINED> instruction: 0x36363636
30007068:	00000000 	andeq	r0, r0, r0
3000706c:	ff00ff00 			; <UNDEFINED> instruction: 0xff00ff00
	...
30007078:	36363636 			; <UNDEFINED> instruction: 0x36363636
3000707c:	f700f736 			; <UNDEFINED> instruction: 0xf700f736
30007080:	36363636 			; <UNDEFINED> instruction: 0x36363636
30007084:	36363636 			; <UNDEFINED> instruction: 0x36363636
30007088:	18181818 	ldmdane	r8, {r3, r4, fp, ip}
3000708c:	ff00ff18 			; <UNDEFINED> instruction: 0xff00ff18
	...
30007098:	36363636 			; <UNDEFINED> instruction: 0x36363636
3000709c:	ff363636 			; <UNDEFINED> instruction: 0xff363636
	...
300070ac:	ff00ff00 			; <UNDEFINED> instruction: 0xff00ff00
300070b0:	18181818 	ldmdane	r8, {r3, r4, fp, ip}
300070b4:	18181818 	ldmdane	r8, {r3, r4, fp, ip}
300070b8:	00000000 	andeq	r0, r0, r0
300070bc:	ff000000 			; <UNDEFINED> instruction: 0xff000000
300070c0:	36363636 			; <UNDEFINED> instruction: 0x36363636
300070c4:	36363636 			; <UNDEFINED> instruction: 0x36363636
300070c8:	36363636 			; <UNDEFINED> instruction: 0x36363636
300070cc:	3f363636 	svccc	0x00363636
	...
300070d8:	18181818 	ldmdane	r8, {r3, r4, fp, ip}
300070dc:	1f181f18 	svcne	0x00181f18
	...
300070ec:	1f181f00 	svcne	0x00181f00
300070f0:	18181818 	ldmdane	r8, {r3, r4, fp, ip}
300070f4:	18181818 	ldmdane	r8, {r3, r4, fp, ip}
300070f8:	00000000 	andeq	r0, r0, r0
300070fc:	3f000000 	svccc	0x00000000
30007100:	36363636 			; <UNDEFINED> instruction: 0x36363636
30007104:	36363636 			; <UNDEFINED> instruction: 0x36363636
30007108:	36363636 			; <UNDEFINED> instruction: 0x36363636
3000710c:	ff363636 			; <UNDEFINED> instruction: 0xff363636
30007110:	36363636 			; <UNDEFINED> instruction: 0x36363636
30007114:	36363636 			; <UNDEFINED> instruction: 0x36363636
30007118:	18181818 	ldmdane	r8, {r3, r4, fp, ip}
3000711c:	ff18ff18 			; <UNDEFINED> instruction: 0xff18ff18
30007120:	18181818 	ldmdane	r8, {r3, r4, fp, ip}
30007124:	18181818 	ldmdane	r8, {r3, r4, fp, ip}
30007128:	18181818 	ldmdane	r8, {r3, r4, fp, ip}
3000712c:	f8181818 			; <UNDEFINED> instruction: 0xf8181818
	...
3000713c:	1f000000 	svcne	0x00000000
30007140:	18181818 	ldmdane	r8, {r3, r4, fp, ip}
30007144:	18181818 	ldmdane	r8, {r3, r4, fp, ip}
30007148:	ffffffff 			; <UNDEFINED> instruction: 0xffffffff
3000714c:	ffffffff 			; <UNDEFINED> instruction: 0xffffffff
30007150:	ffffffff 			; <UNDEFINED> instruction: 0xffffffff
30007154:	ffffffff 			; <UNDEFINED> instruction: 0xffffffff
30007158:	00000000 	andeq	r0, r0, r0
3000715c:	ff000000 			; <UNDEFINED> instruction: 0xff000000
30007160:	ffffffff 			; <UNDEFINED> instruction: 0xffffffff
30007164:	ffffffff 			; <UNDEFINED> instruction: 0xffffffff
30007168:	f0f0f0f0 			; <UNDEFINED> instruction: 0xf0f0f0f0
3000716c:	f0f0f0f0 			; <UNDEFINED> instruction: 0xf0f0f0f0
30007170:	f0f0f0f0 			; <UNDEFINED> instruction: 0xf0f0f0f0
30007174:	f0f0f0f0 			; <UNDEFINED> instruction: 0xf0f0f0f0
30007178:	0f0f0f0f 	svceq	0x000f0f0f
3000717c:	0f0f0f0f 	svceq	0x000f0f0f
30007180:	0f0f0f0f 	svceq	0x000f0f0f
30007184:	0f0f0f0f 	svceq	0x000f0f0f
30007188:	ffffffff 			; <UNDEFINED> instruction: 0xffffffff
3000718c:	00ffffff 	ldrshteq	pc, [pc], #255	; <UNPREDICTABLE>
	...
3000719c:	d8dc7600 	ldmle	ip, {r9, sl, ip, sp, lr}^
300071a0:	76dcd8d8 			; <UNDEFINED> instruction: 0x76dcd8d8
300071a4:	00000000 	andeq	r0, r0, r0
300071a8:	cc780000 	ldclgt	0, cr0, [r8], #-0
300071ac:	ccd8cccc 	ldclgt	12, cr12, [r8], {204}	; 0xcc
300071b0:	ccc6c6c6 	stclgt	6, cr12, [r6], {198}	; 0xc6
300071b4:	00000000 	andeq	r0, r0, r0
300071b8:	c6fe0000 	ldrbtgt	r0, [lr], r0
300071bc:	c0c0c0c6 	sbcgt	ip, r0, r6, asr #1
300071c0:	c0c0c0c0 	sbcgt	ip, r0, r0, asr #1
	...
300071cc:	6c6cfe00 	stclvs	14, cr15, [ip], #-0
300071d0:	6c6c6c6c 	stclvs	12, cr6, [ip], #-432	; 0xfffffe50
300071d4:	00000000 	andeq	r0, r0, r0
300071d8:	c6fe0000 	ldrbtgt	r0, [lr], r0
300071dc:	18183060 	ldmdane	r8, {r5, r6, ip, sp}
300071e0:	fec66030 	mcr2	0, 6, r6, cr6, cr0, {1}
	...
300071ec:	d8d87e00 	ldmle	r8, {r9, sl, fp, ip, sp, lr}^
300071f0:	70d8d8d8 	ldrsbvc	sp, [r8], #136	; 0x88
	...
300071fc:	66666600 	strbtvs	r6, [r6], -r0, lsl #12
30007200:	7c666666 	stclvc	6, cr6, [r6], #-408	; 0xfffffe68
30007204:	00c06060 	sbceq	r6, r0, r0, rrx
30007208:	00000000 	andeq	r0, r0, r0
3000720c:	1818dc76 	ldmdane	r8, {r1, r2, r4, r5, r6, sl, fp, ip, lr, pc}
30007210:	18181818 	ldmdane	r8, {r3, r4, fp, ip}
30007214:	00000000 	andeq	r0, r0, r0
30007218:	187e0000 	ldmdane	lr!, {}^	; <UNPREDICTABLE>
3000721c:	6666663c 			; <UNDEFINED> instruction: 0x6666663c
30007220:	7e183c66 	cdpvc	12, 1, cr3, cr8, cr6, {3}
30007224:	00000000 	andeq	r0, r0, r0
30007228:	6c380000 	ldcvs	0, cr0, [r8], #-0
3000722c:	c6fec6c6 	ldrbtgt	ip, [lr], r6, asr #13
30007230:	386cc6c6 	stmdacc	ip!, {r1, r2, r6, r7, r9, sl, lr, pc}^
30007234:	00000000 	andeq	r0, r0, r0
30007238:	6c380000 	ldcvs	0, cr0, [r8], #-0
3000723c:	6cc6c6c6 	stclvs	6, cr12, [r6], {198}	; 0xc6
30007240:	ee6c6c6c 	cdp	12, 6, cr6, cr12, cr12, {3}
30007244:	00000000 	andeq	r0, r0, r0
30007248:	301e0000 	andscc	r0, lr, r0
3000724c:	663e0c18 			; <UNDEFINED> instruction: 0x663e0c18
30007250:	3c666666 	stclcc	6, cr6, [r6], #-408	; 0xfffffe68
	...
3000725c:	dbdb7e00 	blle	2f6e6a64 <__start_text-0x91959c>
30007260:	00007edb 	ldrdeq	r7, [r0], -fp
30007264:	00000000 	andeq	r0, r0, r0
30007268:	03000000 	movweq	r0, #0
3000726c:	dbdb7e06 	blle	2f6e6a8c <__start_text-0x919574>
30007270:	c0607ef3 	strdgt	r7, [r0], #-227	; 0xffffff1d	; <UNPREDICTABLE>
30007274:	00000000 	andeq	r0, r0, r0
30007278:	301c0000 	andscc	r0, ip, r0
3000727c:	607c6060 	rsbsvs	r6, ip, r0, rrx
30007280:	1c306060 	ldcne	0, cr6, [r0], #-384	; 0xfffffe80
30007284:	00000000 	andeq	r0, r0, r0
30007288:	7c000000 	stcvc	0, cr0, [r0], {-0}
3000728c:	c6c6c6c6 	strbgt	ip, [r6], r6, asr #13
30007290:	c6c6c6c6 	strbgt	ip, [r6], r6, asr #13
	...
3000729c:	fe0000fe 	mcr2	0, 0, r0, cr0, cr14, {7}
300072a0:	00fe0000 	rscseq	r0, lr, r0
	...
300072ac:	187e1818 	ldmdane	lr!, {r3, r4, fp, ip}^
300072b0:	7e000018 	mcrvc	0, 0, r0, cr0, cr8, {0}
300072b4:	00000000 	andeq	r0, r0, r0
300072b8:	30000000 	andcc	r0, r0, r0
300072bc:	0c060c18 	stceq	12, cr0, [r6], {24}
300072c0:	7e003018 	mcrvc	0, 0, r3, cr0, cr8, {0}
300072c4:	00000000 	andeq	r0, r0, r0
300072c8:	0c000000 	stceq	0, cr0, [r0], {-0}
300072cc:	30603018 	rsbcc	r3, r0, r8, lsl r0
300072d0:	7e000c18 	mcrvc	12, 0, r0, cr0, cr8, {0}
300072d4:	00000000 	andeq	r0, r0, r0
300072d8:	1b0e0000 	blne	303872e0 <__bss_end+0x37fa78>
300072dc:	1818181b 	ldmdane	r8, {r0, r1, r3, r4, fp, ip}
300072e0:	18181818 	ldmdane	r8, {r3, r4, fp, ip}
300072e4:	18181818 	ldmdane	r8, {r3, r4, fp, ip}
300072e8:	18181818 	ldmdane	r8, {r3, r4, fp, ip}
300072ec:	18181818 	ldmdane	r8, {r3, r4, fp, ip}
300072f0:	d8d8d818 	ldmle	r8, {r3, r4, fp, ip, lr, pc}^
300072f4:	00000070 	andeq	r0, r0, r0, ror r0
300072f8:	00000000 	andeq	r0, r0, r0
300072fc:	7e001800 	cdpvc	8, 0, cr1, cr0, cr0, {0}
30007300:	00001800 	andeq	r1, r0, r0, lsl #16
	...
3000730c:	00dc7600 	sbcseq	r7, ip, r0, lsl #12
30007310:	0000dc76 	andeq	sp, r0, r6, ror ip
30007314:	00000000 	andeq	r0, r0, r0
30007318:	6c6c3800 	stclvs	8, cr3, [ip], #-0
3000731c:	00000038 	andeq	r0, r0, r8, lsr r0
	...
3000732c:	18000000 	stmdane	r0, {}	; <UNPREDICTABLE>
30007330:	00000018 	andeq	r0, r0, r8, lsl r0
	...
3000733c:	18000000 	stmdane	r0, {}	; <UNPREDICTABLE>
	...
30007348:	0c0c0f00 	stceq	15, cr0, [ip], {-0}
3000734c:	ec0c0c0c 	stc	12, cr0, [ip], {12}
30007350:	1c3c6c6c 	ldcne	12, cr6, [ip], #-432	; 0xfffffe50
30007354:	00000000 	andeq	r0, r0, r0
30007358:	36366c00 	ldrtcc	r6, [r6], -r0, lsl #24
3000735c:	00363636 	eorseq	r3, r6, r6, lsr r6
	...
30007368:	0c663c00 	stcleq	12, cr3, [r6], #-0
3000736c:	007e3218 	rsbseq	r3, lr, r8, lsl r2
	...
3000737c:	7e7e7e7e 	mrcvc	14, 3, r7, cr14, cr14, {3}
30007380:	007e7e7e 	rsbseq	r7, lr, lr, ror lr
	...
30007398:	32327a6a 	eorscc	r7, r2, #434176	; 0x6a000
3000739c:	6c5f3034 	mrrcvs	0, 3, r3, pc, cr4	; <UNPREDICTABLE>
300073a0:	00006463 	andeq	r6, r0, r3, ror #8
300073a4:	34327a6a 	ldrtcc	r7, [r2], #-2666	; 0xfffff596
300073a8:	00003034 	andeq	r3, r0, r4, lsr r0
300073ac:	34327a6a 	ldrtcc	r7, [r2], #-2666	; 0xfffff596
300073b0:	00003034 	andeq	r3, r0, r4, lsr r0
300073b4:	2064634c 	rsbcs	r6, r4, ip, asr #6
300073b8:	746e6f63 	strbtvc	r6, [lr], #-3939	; 0xfffff09d
300073bc:	206c6f72 	rsbcs	r6, ip, r2, ror pc
300073c0:	656c6573 	strbvs	r6, [ip, #-1395]!	; 0xfffffa8d
300073c4:	65207463 	strvs	r7, [r0, #-1123]!	; 0xfffffb9d
300073c8:	726f7272 	rsbvc	r7, pc, #536870919	; 0x20000007
300073cc:	00000a0d 	andeq	r0, r0, sp, lsl #20
300073d0:	32327a6a 	eorscc	r7, r2, #434176	; 0x6a000
300073d4:	6c5f3034 	mrrcvs	0, 3, r3, pc, cr4	; <UNPREDICTABLE>
300073d8:	00006463 	andeq	r6, r0, r3, ror #8
300073dc:	2064634c 	rsbcs	r6, r4, ip, asr #6
300073e0:	656c6573 	strbvs	r6, [ip, #-1395]!	; 0xfffffa8d
300073e4:	65207463 	strvs	r7, [r0, #-1123]!	; 0xfffffb9d
300073e8:	726f7272 	rsbvc	r7, pc, #536870919	; 0x20000007
300073ec:	00000a0d 	andeq	r0, r0, sp, lsl #20
300073f0:	73696854 	cmnvc	r9, #84, 16	; 0x540000
300073f4:	20736920 	rsbscs	r6, r3, r0, lsr #18
300073f8:	74736574 	ldrbtvc	r6, [r3], #-1396	; 0xfffffa8c
300073fc:	420a0d21 	andmi	r0, sl, #2112	; 0x840
30007400:	64616f72 	strbtvs	r6, [r1], #-3954	; 0xfffff08e
30007404:	20736920 	rsbscs	r6, r3, r0, lsr #18
30007408:	34327a6a 	ldrtcc	r7, [r2], #-2666	; 0xfffff596
3000740c:	002e3034 	eoreq	r3, lr, r4, lsr r0
30007410:	64616552 	strbtvs	r6, [r1], #-1362	; 0xfffffaae
30007414:	696f7020 	stmdbvs	pc!, {r5, ip, sp, lr}^	; <UNPREDICTABLE>
30007418:	0a0d746e 	beq	303645d8 <__bss_end+0x35cd70>
3000741c:	00000000 	andeq	r0, r0, r0
30007420:	77617244 	strbvc	r7, [r1, -r4, asr #4]!
30007424:	0d676e69 	stcleq	14, cr6, [r7, #-420]!	; 0xfffffe5c
30007428:	0000000a 	andeq	r0, r0, sl
3000742c:	00007374 	andeq	r7, r0, r4, ror r3
30007430:	20434441 	subcs	r4, r3, r1, asr #8
30007434:	656c6572 	strbvs	r6, [ip, #-1394]!	; 0xfffffa8e
30007438:	0d657361 	stcleq	3, cr7, [r5, #-388]!	; 0xfffffe7c
3000743c:	0000000a 	andeq	r0, r0, sl
30007440:	20434441 	subcs	r4, r3, r1, asr #8
30007444:	6e776f64 	cdpvs	15, 7, cr6, cr7, cr4, {3}
30007448:	00000a0d 	andeq	r0, r0, sp, lsl #20
3000744c:	656d6954 	strbvs	r6, [sp, #-2388]!	; 0xfffff6ac
30007450:	65722072 	ldrbvs	r2, [r2, #-114]!	; 0xffffff8e
30007454:	7361656c 	cmnvc	r1, #108, 10	; 0x1b000000
30007458:	000a0d65 	andeq	r0, sl, r5, ror #26
3000745c:	63756f54 	cmnvs	r5, #84, 30	; 0x150
30007460:	63732068 	cmnvs	r3, #104	; 0x68
30007464:	6e656572 	mcrvs	5, 3, r6, cr5, cr2, {3}
30007468:	6c616320 	stclvs	3, cr6, [r1], #-128	; 0xffffff80
3000746c:	61726269 	cmnvs	r2, r9, ror #4
30007470:	6e6f6974 			; <UNDEFINED> instruction: 0x6e6f6974
30007474:	00000021 	andeq	r0, r0, r1, lsr #32
30007478:	63756f54 	cmnvs	r5, #84, 30	; 0x150
3000747c:	63732068 	cmnvs	r3, #104	; 0x68
30007480:	6e656572 	mcrvs	5, 3, r6, cr5, cr2, {3}
30007484:	6c616320 	stclvs	3, cr6, [r1], #-128	; 0xffffff80
30007488:	61726269 	cmnvs	r2, r9, ror #4
3000748c:	6e6f6974 			; <UNDEFINED> instruction: 0x6e6f6974
30007490:	63757320 	cmnvs	r5, #32, 6	; 0x80000000
30007494:	73736563 	cmnvc	r3, #415236096	; 0x18c00000
30007498:	00000021 	andeq	r0, r0, r1, lsr #32
3000749c:	6e615f78 	mcrvs	15, 3, r5, cr1, cr8, {3}
300074a0:	676f6c61 	strbvs	r6, [pc, -r1, ror #24]!
300074a4:	7365725f 	cmnvc	r5, #-268435451	; 0xf0000005
300074a8:	00203d20 	eoreq	r3, r0, r0, lsr #26
300074ac:	6e615f79 	mcrvs	15, 3, r5, cr1, cr9, {3}
300074b0:	676f6c61 	strbvs	r6, [pc, -r1, ror #24]!
300074b4:	7365725f 	cmnvc	r5, #-268435451	; 0xf0000005
300074b8:	00203d20 	eoreq	r3, r0, r0, lsr #26
300074bc:	00786c20 	rsbseq	r6, r8, r0, lsr #24
300074c0:	72727543 	rsbsvc	r7, r2, #281018368	; 0x10c00000
300074c4:	20746e65 	rsbscs	r6, r4, r5, ror #28
300074c8:	6867696c 	stmdavs	r7!, {r2, r3, r5, r6, r8, fp, sp, lr}^
300074cc:	73692074 	cmnvc	r9, #116	; 0x74
300074d0:	00000020 	andeq	r0, r0, r0, lsr #32
300074d4:	64616552 	strbtvs	r6, [r1], #-1362	; 0xfffffaae
300074d8:	61656d20 	cmnvs	r5, r0, lsr #26
300074dc:	65727573 	ldrbvs	r7, [r2, #-1395]!	; 0xfffffa8d
300074e0:	73657220 	cmnvc	r5, #32, 4
300074e4:	20746c75 	rsbscs	r6, r4, r5, ror ip
300074e8:	6f727265 	svcvs	0x00727265
300074ec:	000a0d72 	andeq	r0, sl, r2, ror sp
300074f0:	32633373 	rsbcc	r3, r3, #-872415231	; 0xcc000001
300074f4:	00303434 	eorseq	r3, r0, r4, lsr r4
300074f8:	20633249 	rsbcs	r3, r3, r9, asr #4
300074fc:	746e6f63 	strbtvc	r6, [lr], #-3939	; 0xfffff09d
30007500:	206c6f72 	rsbcs	r6, ip, r2, ror pc
30007504:	656c6573 	strbvs	r6, [ip, #-1395]!	; 0xfffffa8d
30007508:	65207463 	strvs	r7, [r0, #-1123]!	; 0xfffffb9d
3000750c:	726f7272 	rsbvc	r7, pc, #536870919	; 0x20000007
30007510:	00000a0d 	andeq	r0, r0, sp, lsl #20
30007514:	32633373 	rsbcc	r3, r3, #-872415231	; 0xcc000001
30007518:	00303434 	eorseq	r3, r0, r4, lsr r4
3000751c:	41206f4e 			; <UNDEFINED> instruction: 0x41206f4e
30007520:	0a0d4b43 	beq	3035a234 <__bss_end+0x3529cc>
30007524:	00000000 	andeq	r0, r0, r0
30007528:	20746f4e 	rsbscs	r6, r4, lr, asr #30
3000752c:	6e756f66 	cdpvs	15, 7, cr6, cr5, cr6, {3}
30007530:	65642064 	strbvs	r2, [r4, #-100]!	; 0xffffff9c
30007534:	65636976 	strbvs	r6, [r3, #-2422]!	; 0xfffff68a
30007538:	00000a0d 	andeq	r0, r0, sp, lsl #20
3000753c:	6e756f46 	cdpvs	15, 7, cr6, cr5, cr6, {2}
30007540:	65642064 	strbvs	r2, [r4, #-100]!	; 0xffffff9c
30007544:	65636976 	strbvs	r6, [r3, #-2422]!	; 0xfffff68a
30007548:	00000a0d 	andeq	r0, r0, sp, lsl #20
3000754c:	32633373 	rsbcc	r3, r3, #-872415231	; 0xcc000001
30007550:	00303434 	eorseq	r3, r0, r4, lsr r4
30007554:	5f697073 	svcpl	0x00697073
30007558:	6f697067 	svcvs	0x00697067
3000755c:	00000000 	andeq	r0, r0, r0
30007560:	5f697073 	svcpl	0x00697073
30007564:	6f697067 	svcvs	0x00697067
30007568:	00000000 	andeq	r0, r0, r0
3000756c:	01380255 	teqeq	r8, r5, asr r2
30007570:	000000bb 	strheq	r0, [r0], -fp
30007574:	6f727245 	svcvs	0x00727245
30007578:	53203a72 			; <UNDEFINED> instruction: 0x53203a72
3000757c:	6576616c 	ldrbvs	r6, [r6, #-364]!	; 0xfffffe94
30007580:	776f6c20 	strbvc	r6, [pc, -r0, lsr #24]!
30007584:	6b636120 	blvs	318dfa0c <__bss_end+0x18d81a4>
30007588:	6d697420 	cfstrdvs	mvd7, [r9, #-128]!	; 0xffffff80
3000758c:	756f7265 	strbvc	r7, [pc, #-613]!	; 3000732f <fontdata_8x16+0xf97>
30007590:	0a0d2174 	beq	3034fb68 <__bss_end+0x348300>
30007594:	00000000 	andeq	r0, r0, r0
30007598:	6f727245 	svcvs	0x00727245
3000759c:	53203a72 			; <UNDEFINED> instruction: 0x53203a72
300075a0:	6576616c 	ldrbvs	r6, [r6, #-364]!	; 0xfffffe94
300075a4:	67696820 	strbvs	r6, [r9, -r0, lsr #16]!
300075a8:	63612068 	cmnvs	r1, #104	; 0x68
300075ac:	6974206b 	ldmdbvs	r4!, {r0, r1, r3, r5, r6, sp}^
300075b0:	6f72656d 	svcvs	0x0072656d
300075b4:	0d217475 	cfstrseq	mvf7, [r1, #-468]!	; 0xfffffe2c
300075b8:	0000000a 	andeq	r0, r0, sl
300075bc:	72727543 	rsbsvc	r7, r2, #281018368	; 0x10c00000
300075c0:	20746e65 	rsbscs	r6, r4, r5, ror #28
300075c4:	206d7568 	rsbcs	r7, sp, r8, ror #10
300075c8:	0000203d 	andeq	r2, r0, sp, lsr r0
300075cc:	72727543 	rsbsvc	r7, r2, #281018368	; 0x10c00000
300075d0:	20746e65 	rsbscs	r6, r4, r5, ror #28
300075d4:	706d6574 	rsbvc	r6, sp, r4, ror r5
300075d8:	00203d20 	eoreq	r3, r0, r0, lsr #26
300075dc:	6f727245 	svcvs	0x00727245
300075e0:	43203a72 			; <UNDEFINED> instruction: 0x43203a72
300075e4:	6b636568 	blvs	318e0b8c <__bss_end+0x18d9324>
300075e8:	6d756e20 	ldclvs	14, cr6, [r5, #-128]!	; 0xffffff80
300075ec:	72726520 	rsbsvc	r6, r2, #32, 10	; 0x8000000
300075f0:	0a0d726f 	beq	30363fb4 <__bss_end+0x35c74c>
300075f4:	00000000 	andeq	r0, r0, r0
300075f8:	6f727245 	svcvs	0x00727245
300075fc:	53203a72 			; <UNDEFINED> instruction: 0x53203a72
30007600:	6576616c 	ldrbvs	r6, [r6, #-364]!	; 0xfffffe94
30007604:	776f6c20 	strbvc	r6, [pc, -r0, lsr #24]!
30007608:	74616420 	strbtvc	r6, [r1], #-1056	; 0xfffffbe0
3000760c:	69742061 	ldmdbvs	r4!, {r0, r5, r6, sp}^
30007610:	6f72656d 	svcvs	0x0072656d
30007614:	0d217475 	cfstrseq	mvf7, [r1, #-468]!	; 0xfffffe2c
30007618:	0000000a 	andeq	r0, r0, sl
3000761c:	6f727245 	svcvs	0x00727245
30007620:	53203a72 			; <UNDEFINED> instruction: 0x53203a72
30007624:	6576616c 	ldrbvs	r6, [r6, #-364]!	; 0xfffffe94
30007628:	67696820 	strbvs	r6, [r9, -r0, lsr #16]!
3000762c:	61642068 	cmnvs	r4, r8, rrx
30007630:	74206174 	strtvc	r6, [r0], #-372	; 0xfffffe8c
30007634:	72656d69 	rsbvc	r6, r5, #6720	; 0x1a40
30007638:	2174756f 	cmncs	r4, pc, ror #10
3000763c:	Address 0x3000763c is out of bounds.


Disassembly of section .data:

30007640 <tim_int>:
30007640:	300062f0 	strdcc	r6, [r0], -r0
30007644:	30001418 	andcc	r1, r0, r8, lsl r4

30007648 <jz2240_lcd_par>:
30007648:	30007398 	mulcc	r0, r8, r3
3000764c:	00000029 	andeq	r0, r0, r9, lsr #32
30007650:	00000002 	andeq	r0, r0, r2
30007654:	00000002 	andeq	r0, r0, r2
30007658:	0000000a 	andeq	r0, r0, sl
3000765c:	00000002 	andeq	r0, r0, r2
30007660:	00000002 	andeq	r0, r0, r2
30007664:	00010100 	andeq	r0, r1, r0, lsl #2
30007668:	00000000 	andeq	r0, r0, r0
3000766c:	000001e0 	andeq	r0, r0, r0, ror #3
30007670:	00000110 	andeq	r0, r0, r0, lsl r1
30007674:	00000010 	andeq	r0, r0, r0, lsl r0
30007678:	32000000 	andcc	r0, r0, #0

3000767c <jz2440_lcd_con>:
3000767c:	300073a4 	andcc	r7, r0, r4, lsr #7
30007680:	30002c18 	andcc	r2, r0, r8, lsl ip
30007684:	30002ec8 	andcc	r2, r0, r8, asr #29
30007688:	30002e84 	andcc	r2, r0, r4, lsl #29

3000768c <touch_sta>:
3000768c:	00000001 	andeq	r0, r0, r1

30007690 <ts_tim_int>:
30007690:	3000742c 	andcc	r7, r0, ip, lsr #8
30007694:	300035cc 	andcc	r3, r0, ip, asr #11

30007698 <s3c2440_i2c_contol>:
30007698:	30007514 	andcc	r7, r0, r4, lsl r5
3000769c:	30004570 	andcc	r4, r0, r0, ror r5
300076a0:	300045c8 	andcc	r4, r0, r8, asr #11

300076a4 <s3c2440_spi_con>:
300076a4:	3000754c 	andcc	r7, r0, ip, asr #10
300076a8:	30004918 	andcc	r4, r0, r8, lsl r9
300076ac:	30004970 	andcc	r4, r0, r0, ror r9

300076b0 <spi_gpio_analog_control>:
300076b0:	30007560 	andcc	r7, r0, r0, ror #10
300076b4:	30004ccc 	andcc	r4, r0, ip, asr #25
300076b8:	30004f28 	andcc	r4, r0, r8, lsr #30

Disassembly of section .bss:

300076c0 <timer_callback_count.0>:
300076c0:	00000000 	andeq	r0, r0, r0

300076c4 <irp_callback_array>:
	...

30007744 <timer_interrupt_array>:
	...

3000776c <tick_count>:
3000776c:	00000000 	andeq	r0, r0, r0

30007770 <pri_lcd_params_array>:
	...

30007798 <pri_select_lcd_params>:
30007798:	00000000 	andeq	r0, r0, r0

3000779c <lcd_control_array>:
	...

300077c4 <selected_lcd_control>:
300077c4:	00000000 	andeq	r0, r0, r0

300077c8 <ts_timer_callback_flag>:
300077c8:	00000000 	andeq	r0, r0, r0

300077cc <x_analog>:
300077cc:	00000000 	andeq	r0, r0, r0

300077d0 <y_analog>:
300077d0:	00000000 	andeq	r0, r0, r0

300077d4 <is_xy_vaild>:
300077d4:	00000000 	andeq	r0, r0, r0

300077d8 <g_kx>:
	...

300077e0 <g_ky>:
	...

300077e8 <g_kx_c>:
	...

300077f0 <g_ky_c>:
	...

300077f8 <g_lcd_xc>:
	...

30007800 <g_lcd_yc>:
	...

30007808 <is_swap_xy>:
30007808:	00000000 	andeq	r0, r0, r0

3000780c <p_i2c_control_array>:
	...

30007834 <p_i2c_control_selected>:
30007834:	00000000 	andeq	r0, r0, r0

30007838 <cur_msg>:
30007838:	00000000 	andeq	r0, r0, r0

3000783c <g_p_spi_con>:
	...

30007864 <g_p_spi_con_selected>:
30007864:	00000000 	andeq	r0, r0, r0

Disassembly of section .comment:

00000000 <.comment>:
   0:	3a434347 	bcc	10d0d24 <__start_text-0x2ef2f2dc>
   4:	4e472820 	cdpmi	8, 4, cr2, cr7, cr0, {1}
   8:	72412055 	subvc	r2, r1, #85	; 0x55
   c:	6d45206d 	stclvs	0, cr2, [r5, #-436]	; 0xfffffe4c
  10:	64646562 	strbtvs	r6, [r4], #-1378	; 0xfffffa9e
  14:	54206465 	strtpl	r6, [r0], #-1125	; 0xfffffb9b
  18:	636c6f6f 	cmnvs	ip, #444	; 0x1bc
  1c:	6e696168 	powvsez	f6, f1, #0.0
  20:	2e303120 	rsfcssp	f3, f0, f0
  24:	30322d33 	eorscc	r2, r2, r3, lsr sp
  28:	312e3132 			; <UNDEFINED> instruction: 0x312e3132
  2c:	31202930 			; <UNDEFINED> instruction: 0x31202930
  30:	2e332e30 	mrccs	14, 1, r2, cr3, cr0, {1}
  34:	30322031 	eorscc	r2, r2, r1, lsr r0
  38:	38303132 	ldmdacc	r0!, {r1, r4, r5, r8, ip, sp}
  3c:	28203432 	stmdacs	r0!, {r1, r4, r5, sl, ip, sp}
  40:	656c6572 	strbvs	r6, [ip, #-1394]!	; 0xfffffa8e
  44:	29657361 	stmdbcs	r5!, {r0, r5, r6, r8, r9, ip, sp, lr}^
	...

Disassembly of section .ARM.attributes:

00000000 <.ARM.attributes>:
   0:	00002541 	andeq	r2, r0, r1, asr #10
   4:	61656100 	cmnvs	r5, r0, lsl #2
   8:	01006962 	tsteq	r0, r2, ror #18
   c:	0000001b 	andeq	r0, r0, fp, lsl r0
  10:	00543405 	subseq	r3, r4, r5, lsl #8
  14:	01080206 	tsteq	r8, r6, lsl #4
  18:	04120109 	ldreq	r0, [r2], #-265	; 0xfffffef7
  1c:	01150114 	tsteq	r5, r4, lsl r1
  20:	01180317 	tsteq	r8, r7, lsl r3
  24:	Address 0x00000024 is out of bounds.


Disassembly of section .debug_frame:

00000000 <.debug_frame>:
   0:	0000000c 	andeq	r0, r0, ip
   4:	ffffffff 			; <UNDEFINED> instruction: 0xffffffff
   8:	7c020001 	stcvc	0, cr0, [r2], {1}
   c:	000d0c0e 	andeq	r0, sp, lr, lsl #24
  10:	0000001c 	andeq	r0, r0, ip, lsl r0
  14:	00000000 	andeq	r0, r0, r0
  18:	3000543c 	andcc	r5, r0, ip, lsr r4
  1c:	00000290 	muleq	r0, r0, r2
  20:	100e420a 	andne	r4, lr, sl, lsl #4
  24:	03850484 	orreq	r0, r5, #132, 8	; 0x84000000
  28:	018e0286 	orreq	r0, lr, r6, lsl #5
  2c:	0b014603 	bleq	51840 <__start_text-0x2ffae7c0>
  30:	0000000c 	andeq	r0, r0, ip
  34:	ffffffff 			; <UNDEFINED> instruction: 0xffffffff
  38:	7c010001 	stcvc	0, cr0, [r1], {1}
  3c:	000d0c0e 	andeq	r0, sp, lr, lsl #24
  40:	0000000c 	andeq	r0, r0, ip
  44:	00000030 	andeq	r0, r0, r0, lsr r0
  48:	300056cc 	andcc	r5, r0, ip, asr #13
  4c:	00000128 	andeq	r0, r0, r8, lsr #2
  50:	0000000c 	andeq	r0, r0, ip
  54:	ffffffff 			; <UNDEFINED> instruction: 0xffffffff
  58:	7c020001 	stcvc	0, cr0, [r2], {1}
  5c:	000d0c0e 	andeq	r0, sp, lr, lsl #24
  60:	0000001c 	andeq	r0, r0, ip, lsl r0
  64:	00000050 	andeq	r0, r0, r0, asr r0
  68:	30005818 	andcc	r5, r0, r8, lsl r8
  6c:	0000031c 	andeq	r0, r0, ip, lsl r3
  70:	0c0e480a 	stceq	8, cr4, [lr], {10}
  74:	02850384 	addeq	r0, r5, #132, 6	; 0x10000002
  78:	8603018e 	strhi	r0, [r3], -lr, lsl #3
  7c:	00000b01 	andeq	r0, r0, r1, lsl #22
  80:	00000018 	andeq	r0, r0, r8, lsl r0
  84:	00000050 	andeq	r0, r0, r0, asr r0
  88:	30005b34 	andcc	r5, r0, r4, lsr fp
  8c:	00000024 	andeq	r0, r0, r4, lsr #32
  90:	0c0e480a 	stceq	8, cr4, [lr], {10}
  94:	02850384 	addeq	r0, r5, #132, 6	; 0x10000002
  98:	0b4a018e 	bleq	12806d8 <__start_text-0x2ed7f928>
  9c:	00000018 	andeq	r0, r0, r8, lsl r0
  a0:	00000050 	andeq	r0, r0, r0, asr r0
  a4:	30005b58 	andcc	r5, r0, r8, asr fp
  a8:	00000028 	andeq	r0, r0, r8, lsr #32
  ac:	0c0e480a 	stceq	8, cr4, [lr], {10}
  b0:	02850384 	addeq	r0, r5, #132, 6	; 0x10000002
  b4:	0b4c018e 	bleq	13006f4 <__start_text-0x2ecff90c>
  b8:	00000018 	andeq	r0, r0, r8, lsl r0
  bc:	00000050 	andeq	r0, r0, r0, asr r0
  c0:	30005b80 	andcc	r5, r0, r0, lsl #23
  c4:	00000048 	andeq	r0, r0, r8, asr #32
  c8:	0c0e5c0a 	stceq	12, cr5, [lr], {10}
  cc:	02850384 	addeq	r0, r5, #132, 6	; 0x10000002
  d0:	0b48018e 	bleq	1200710 <__start_text-0x2edff8f0>
  d4:	00000024 	andeq	r0, r0, r4, lsr #32
  d8:	00000050 	andeq	r0, r0, r0, asr r0
  dc:	30005bc8 	andcc	r5, r0, r8, asr #23
  e0:	00000074 	andeq	r0, r0, r4, ror r0
  e4:	0e460a0a 	vmlaeq.f32	s1, s12, s20
  e8:	8503840c 	strhi	r8, [r3, #-1036]	; 0xfffffbf4
  ec:	44018e02 	strmi	r8, [r1], #-3586	; 0xfffff1fe
  f0:	0c0e460b 	stceq	6, cr4, [lr], {11}
  f4:	02850384 	addeq	r0, r5, #132, 6	; 0x10000002
  f8:	0b6a018e 	bleq	1a80738 <__start_text-0x2e57f8c8>
  fc:	0000000c 	andeq	r0, r0, ip
 100:	ffffffff 			; <UNDEFINED> instruction: 0xffffffff
 104:	7c020001 	stcvc	0, cr0, [r2], {1}
 108:	000d0c0e 	andeq	r0, sp, lr, lsl #24
 10c:	0000001c 	andeq	r0, r0, ip, lsl r0
 110:	000000fc 	strdeq	r0, [r0], -ip
 114:	30005c3c 	andcc	r5, r0, ip, lsr ip
 118:	00000290 	muleq	r0, r0, r2
 11c:	100e420a 	andne	r4, lr, sl, lsl #4
 120:	03850484 	orreq	r0, r5, #132, 8	; 0x84000000
 124:	018e0286 	orreq	r0, lr, r6, lsl #5
 128:	0b014603 	bleq	5193c <__start_text-0x2ffae6c4>
 12c:	0000001c 	andeq	r0, r0, ip, lsl r0
 130:	000000fc 	strdeq	r0, [r0], -ip
 134:	30005ecc 	andcc	r5, r0, ip, asr #29
 138:	0000020c 	andeq	r0, r0, ip, lsl #4
 13c:	100e420a 	andne	r4, lr, sl, lsl #4
 140:	03850484 	orreq	r0, r5, #132, 8	; 0x84000000
 144:	018e0286 	orreq	r0, lr, r6, lsl #5
 148:	0b010403 	bleq	4115c <__start_text-0x2ffbeea4>
 14c:	0000000c 	andeq	r0, r0, ip
 150:	ffffffff 			; <UNDEFINED> instruction: 0xffffffff
 154:	7c020001 	stcvc	0, cr0, [r2], {1}
 158:	000d0c0e 	andeq	r0, sp, lr, lsl #24
 15c:	00000010 	andeq	r0, r0, r0, lsl r0
 160:	0000014c 	andeq	r0, r0, ip, asr #2
 164:	300060d8 	ldrdcc	r6, [r0], -r8
 168:	0000005c 	andeq	r0, r0, ip, asr r0
 16c:	000b6e0a 	andeq	r6, fp, sl, lsl #28
